
kernel.elf:     file format elf32-littlearm


Disassembly of section .text:

00008000 <reset_handler-0x4>:
    8000:	e51ff004 	ldr	pc, [pc, #-4]	; 8004 <reset_handler>

00008004 <reset_handler>:
    8004:	00008008 	andeq	r8, r0, r8

00008008 <reset>:
    8008:	e3a00902 	mov	r0, #32768	; 0x8000
    800c:	e3a01000 	mov	r1, #0
    8010:	e8b003fc 	ldm	r0!, {r2, r3, r4, r5, r6, r7, r8, r9}
    8014:	e8a103fc 	stmia	r1!, {r2, r3, r4, r5, r6, r7, r8, r9}
    8018:	e8b003fc 	ldm	r0!, {r2, r3, r4, r5, r6, r7, r8, r9}
    801c:	e8a103fc 	stmia	r1!, {r2, r3, r4, r5, r6, r7, r8, r9}
    8020:	e3a000d2 	mov	r0, #210	; 0xd2
    8024:	e121f000 	msr	CPSR_c, r0
    8028:	e3a0d902 	mov	sp, #32768	; 0x8000
    802c:	e3a000d1 	mov	r0, #209	; 0xd1
    8030:	e121f000 	msr	CPSR_c, r0
    8034:	e3a0d901 	mov	sp, #16384	; 0x4000
    8038:	e3a000d3 	mov	r0, #211	; 0xd3
    803c:	e121f000 	msr	CPSR_c, r0
    8040:	e3a0d302 	mov	sp, #134217728	; 0x8000000
    8044:	eb000021 	bl	80d0 <notmain>

00008048 <PUT32>:
    8048:	e5801000 	str	r1, [r0]
    804c:	e12fff1e 	bx	lr

00008050 <PUT16>:
    8050:	e1c010b0 	strh	r1, [r0]
    8054:	e12fff1e 	bx	lr

00008058 <PUT8>:
    8058:	e5c01000 	strb	r1, [r0]
    805c:	e12fff1e 	bx	lr

00008060 <GET32>:
    8060:	e5900000 	ldr	r0, [r0]
    8064:	e12fff1e 	bx	lr

00008068 <GETPC>:
    8068:	e1a0000e 	mov	r0, lr
    806c:	e12fff1e 	bx	lr

00008070 <BRANCHTO>:
    8070:	e12fff10 	bx	r0

00008074 <dummy>:
    8074:	e12fff1e 	bx	lr

00008078 <funcA>:
    8078:	e52de004 	push	{lr}		; (str lr, [sp, #-4]!)
    807c:	e24dd00c 	sub	sp, sp, #12
    8080:	e3a03000 	mov	r3, #0
    8084:	e58d3004 	str	r3, [sp, #4]
    8088:	e59d3004 	ldr	r3, [sp, #4]
    808c:	e2833001 	add	r3, r3, #1
    8090:	e58d3004 	str	r3, [sp, #4]
    8094:	e59f0004 	ldr	r0, [pc, #4]	; 80a0 <funcA+0x28>
    8098:	eb000156 	bl	85f8 <switch_to>
    809c:	eafffff9 	b	8088 <funcA+0x10>
    80a0:	0000a074 	andeq	sl, r0, r4, ror r0

000080a4 <funcB>:
    80a4:	e52de004 	push	{lr}		; (str lr, [sp, #-4]!)
    80a8:	e24dd00c 	sub	sp, sp, #12
    80ac:	e3a03001 	mov	r3, #1
    80b0:	e58d3004 	str	r3, [sp, #4]
    80b4:	e59d3004 	ldr	r3, [sp, #4]
    80b8:	e2833002 	add	r3, r3, #2
    80bc:	e58d3004 	str	r3, [sp, #4]
    80c0:	e59f0004 	ldr	r0, [pc, #4]	; 80cc <funcB+0x28>
    80c4:	eb00014b 	bl	85f8 <switch_to>
    80c8:	eafffff9 	b	80b4 <funcB+0x10>
    80cc:	0000a000 	andeq	sl, r0, r0

000080d0 <notmain>:
    80d0:	e92d4008 	push	{r3, lr}
    80d4:	e59f3048 	ldr	r3, [pc, #72]	; 8124 <notmain+0x54>
    80d8:	e5933000 	ldr	r3, [r3]
    80dc:	e59f0044 	ldr	r0, [pc, #68]	; 8128 <notmain+0x58>
    80e0:	e59f1044 	ldr	r1, [pc, #68]	; 812c <notmain+0x5c>
    80e4:	e1a02003 	mov	r2, r3
    80e8:	eb000121 	bl	8574 <init_ctx>
    80ec:	e59f3030 	ldr	r3, [pc, #48]	; 8124 <notmain+0x54>
    80f0:	e5933000 	ldr	r3, [r3]
    80f4:	e59f0034 	ldr	r0, [pc, #52]	; 8130 <notmain+0x60>
    80f8:	e59f1034 	ldr	r1, [pc, #52]	; 8134 <notmain+0x64>
    80fc:	e1a02003 	mov	r2, r3
    8100:	eb00011b 	bl	8574 <init_ctx>
    8104:	e59f302c 	ldr	r3, [pc, #44]	; 8138 <notmain+0x68>
    8108:	e59f202c 	ldr	r2, [pc, #44]	; 813c <notmain+0x6c>
    810c:	e5832000 	str	r2, [r3]
    8110:	e59f0010 	ldr	r0, [pc, #16]	; 8128 <notmain+0x58>
    8114:	eb000137 	bl	85f8 <switch_to>
    8118:	e3a03000 	mov	r3, #0
    811c:	e1a00003 	mov	r0, r3
    8120:	e8bd8008 	pop	{r3, pc}
    8124:	00009000 	andeq	r9, r0, r0
    8128:	0000a000 	andeq	sl, r0, r0
    812c:	00008078 	andeq	r8, r0, r8, ror r0
    8130:	0000a074 	andeq	sl, r0, r4, ror r0
    8134:	000080a4 	andeq	r8, r0, r4, lsr #1
    8138:	0000a070 	andeq	sl, r0, r0, ror r0
    813c:	0000a038 	andeq	sl, r0, r8, lsr r0

00008140 <enable_timer_irq>:
    8140:	e92d4008 	push	{r3, lr}
    8144:	e59f0008 	ldr	r0, [pc, #8]	; 8154 <enable_timer_irq+0x14>
    8148:	e3a01002 	mov	r1, #2
    814c:	ebffffbd 	bl	8048 <PUT32>
    8150:	e8bd8008 	pop	{r3, pc}
    8154:	20003000 	andcs	r3, r0, r0

00008158 <disable_timer_irq>:
    8158:	e92d4008 	push	{r3, lr}
    815c:	e59f0008 	ldr	r0, [pc, #8]	; 816c <disable_timer_irq+0x14>
    8160:	e3e01002 	mvn	r1, #2
    8164:	ebffffb7 	bl	8048 <PUT32>
    8168:	e8bd8008 	pop	{r3, pc}
    816c:	20003000 	andcs	r3, r0, r0

00008170 <set_next_tick_and_enable_timer_irq>:
    8170:	e52de004 	push	{lr}		; (str lr, [sp, #-4]!)
    8174:	e24dd00c 	sub	sp, sp, #12
    8178:	e59f0028 	ldr	r0, [pc, #40]	; 81a8 <set_next_tick_and_enable_timer_irq+0x38>
    817c:	ebffffb7 	bl	8060 <GET32>
    8180:	e58d0004 	str	r0, [sp, #4]
    8184:	e59d3004 	ldr	r3, [sp, #4]
    8188:	e2833702 	add	r3, r3, #524288	; 0x80000
    818c:	e58d3004 	str	r3, [sp, #4]
    8190:	e59f0014 	ldr	r0, [pc, #20]	; 81ac <set_next_tick_and_enable_timer_irq+0x3c>
    8194:	e59d1004 	ldr	r1, [sp, #4]
    8198:	ebffffaa 	bl	8048 <PUT32>
    819c:	ebffffe7 	bl	8140 <enable_timer_irq>
    81a0:	e28dd00c 	add	sp, sp, #12
    81a4:	e8bd8000 	pop	{pc}
    81a8:	20003004 	andcs	r3, r0, r4
    81ac:	20003010 	andcs	r3, r0, r0, lsl r0

000081b0 <led_off>:
    81b0:	e92d4008 	push	{r3, lr}
    81b4:	e59f0008 	ldr	r0, [pc, #8]	; 81c4 <led_off+0x14>
    81b8:	e3a01801 	mov	r1, #65536	; 0x10000
    81bc:	ebffffa1 	bl	8048 <PUT32>
    81c0:	e8bd8008 	pop	{r3, pc}
    81c4:	2020001c 	eorcs	r0, r0, ip, lsl r0

000081c8 <led_on>:
    81c8:	e92d4008 	push	{r3, lr}
    81cc:	e59f0008 	ldr	r0, [pc, #8]	; 81dc <led_on+0x14>
    81d0:	e3a01801 	mov	r1, #65536	; 0x10000
    81d4:	ebffff9b 	bl	8048 <PUT32>
    81d8:	e8bd8008 	pop	{r3, pc}
    81dc:	20200028 	eorcs	r0, r0, r8, lsr #32

000081e0 <init_hw>:
    81e0:	e52de004 	push	{lr}		; (str lr, [sp, #-4]!)
    81e4:	e24dd00c 	sub	sp, sp, #12
    81e8:	e59f0070 	ldr	r0, [pc, #112]	; 8260 <init_hw+0x80>
    81ec:	ebffff9b 	bl	8060 <GET32>
    81f0:	e58d0004 	str	r0, [sp, #4]
    81f4:	e59d3004 	ldr	r3, [sp, #4]
    81f8:	e3c33707 	bic	r3, r3, #1835008	; 0x1c0000
    81fc:	e58d3004 	str	r3, [sp, #4]
    8200:	e59d3004 	ldr	r3, [sp, #4]
    8204:	e3833701 	orr	r3, r3, #262144	; 0x40000
    8208:	e58d3004 	str	r3, [sp, #4]
    820c:	e59f004c 	ldr	r0, [pc, #76]	; 8260 <init_hw+0x80>
    8210:	e59d1004 	ldr	r1, [sp, #4]
    8214:	ebffff8b 	bl	8048 <PUT32>
    8218:	e59f0044 	ldr	r0, [pc, #68]	; 8264 <init_hw+0x84>
    821c:	e3a01801 	mov	r1, #65536	; 0x10000
    8220:	ebffff88 	bl	8048 <PUT32>
    8224:	e59f003c 	ldr	r0, [pc, #60]	; 8268 <init_hw+0x88>
    8228:	ebffff8c 	bl	8060 <GET32>
    822c:	e58d0000 	str	r0, [sp]
    8230:	e59d3000 	ldr	r3, [sp]
    8234:	e2833702 	add	r3, r3, #524288	; 0x80000
    8238:	e58d3000 	str	r3, [sp]
    823c:	e59f0028 	ldr	r0, [pc, #40]	; 826c <init_hw+0x8c>
    8240:	e59d1000 	ldr	r1, [sp]
    8244:	ebffff7f 	bl	8048 <PUT32>
    8248:	ebffffbc 	bl	8140 <enable_timer_irq>
    824c:	e59f001c 	ldr	r0, [pc, #28]	; 8270 <init_hw+0x90>
    8250:	e3a01002 	mov	r1, #2
    8254:	ebffff7b 	bl	8048 <PUT32>
    8258:	e28dd00c 	add	sp, sp, #12
    825c:	e8bd8000 	pop	{pc}
    8260:	20200004 	eorcs	r0, r0, r4
    8264:	2020001c 	eorcs	r0, r0, ip, lsl r0
    8268:	20003004 	andcs	r3, r0, r4
    826c:	20003010 	andcs	r3, r0, r0, lsl r0
    8270:	2000b210 	andcs	fp, r0, r0, lsl r2

00008274 <AllocateMemory>:
    8274:	e52de004 	push	{lr}		; (str lr, [sp, #-4]!)
    8278:	e24dd01c 	sub	sp, sp, #28
    827c:	e58d0004 	str	r0, [sp, #4]
    8280:	e59f312c 	ldr	r3, [pc, #300]	; 83b4 <AllocateMemory+0x140>
    8284:	e58d3014 	str	r3, [sp, #20]
    8288:	e59d3004 	ldr	r3, [sp, #4]
    828c:	e3530000 	cmp	r3, #0
    8290:	1a000001 	bne	829c <AllocateMemory+0x28>
    8294:	e3a03102 	mov	r3, #-2147483648	; 0x80000000
    8298:	ea000042 	b	83a8 <AllocateMemory+0x134>
    829c:	e59f3114 	ldr	r3, [pc, #276]	; 83b8 <AllocateMemory+0x144>
    82a0:	e5933000 	ldr	r3, [r3]
    82a4:	e3530000 	cmp	r3, #0
    82a8:	1a000004 	bne	82c0 <AllocateMemory+0x4c>
    82ac:	e59d0014 	ldr	r0, [sp, #20]
    82b0:	eb0000a0 	bl	8538 <createInitialHeader>
    82b4:	e59f30fc 	ldr	r3, [pc, #252]	; 83b8 <AllocateMemory+0x144>
    82b8:	e3a02001 	mov	r2, #1
    82bc:	e5832000 	str	r2, [r3]
    82c0:	e3a03000 	mov	r3, #0
    82c4:	e58d3010 	str	r3, [sp, #16]
    82c8:	ea000025 	b	8364 <AllocateMemory+0xf0>
    82cc:	e59d3014 	ldr	r3, [sp, #20]
    82d0:	e2833004 	add	r3, r3, #4
    82d4:	e5933000 	ldr	r3, [r3]
    82d8:	e3530000 	cmp	r3, #0
    82dc:	1a00001d 	bne	8358 <AllocateMemory+0xe4>
    82e0:	e59d3014 	ldr	r3, [sp, #20]
    82e4:	e5932000 	ldr	r2, [r3]
    82e8:	e59d3014 	ldr	r3, [sp, #20]
    82ec:	e0633002 	rsb	r3, r3, r2
    82f0:	e2433002 	sub	r3, r3, #2
    82f4:	e58d300c 	str	r3, [sp, #12]
    82f8:	e59d2004 	ldr	r2, [sp, #4]
    82fc:	e59d300c 	ldr	r3, [sp, #12]
    8300:	e1520003 	cmp	r2, r3
    8304:	8a000013 	bhi	8358 <AllocateMemory+0xe4>
    8308:	e3a03001 	mov	r3, #1
    830c:	e58d3010 	str	r3, [sp, #16]
    8310:	e59d2004 	ldr	r2, [sp, #4]
    8314:	e59d300c 	ldr	r3, [sp, #12]
    8318:	e0633002 	rsb	r3, r3, r2
    831c:	e3530003 	cmp	r3, #3
    8320:	9a000017 	bls	8384 <AllocateMemory+0x110>
    8324:	e59d3014 	ldr	r3, [sp, #20]
    8328:	e5933000 	ldr	r3, [r3]
    832c:	e2433004 	sub	r3, r3, #4
    8330:	e59d2004 	ldr	r2, [sp, #4]
    8334:	e2822002 	add	r2, r2, #2
    8338:	e1a02102 	lsl	r2, r2, #2
    833c:	e59d1014 	ldr	r1, [sp, #20]
    8340:	e0812002 	add	r2, r1, r2
    8344:	e5832000 	str	r2, [r3]
    8348:	e59d0014 	ldr	r0, [sp, #20]
    834c:	e59d1004 	ldr	r1, [sp, #4]
    8350:	eb00004f 	bl	8494 <createHeader>
    8354:	ea00000a 	b	8384 <AllocateMemory+0x110>
    8358:	e59d3014 	ldr	r3, [sp, #20]
    835c:	e5933000 	ldr	r3, [r3]
    8360:	e58d3014 	str	r3, [sp, #20]
    8364:	e59d3014 	ldr	r3, [sp, #20]
    8368:	e5933000 	ldr	r3, [r3]
    836c:	e3530000 	cmp	r3, #0
    8370:	0a000004 	beq	8388 <AllocateMemory+0x114>
    8374:	e59d3010 	ldr	r3, [sp, #16]
    8378:	e3530000 	cmp	r3, #0
    837c:	0affffd2 	beq	82cc <AllocateMemory+0x58>
    8380:	ea000000 	b	8388 <AllocateMemory+0x114>
    8384:	e1a00000 	nop			; (mov r0, r0)
    8388:	e59d3010 	ldr	r3, [sp, #16]
    838c:	e3530000 	cmp	r3, #0
    8390:	1a000002 	bne	83a0 <AllocateMemory+0x12c>
    8394:	e59d0014 	ldr	r0, [sp, #20]
    8398:	e59d1004 	ldr	r1, [sp, #4]
    839c:	eb00003c 	bl	8494 <createHeader>
    83a0:	e59d3014 	ldr	r3, [sp, #20]
    83a4:	e2833008 	add	r3, r3, #8
    83a8:	e1a00003 	mov	r0, r3
    83ac:	e28dd01c 	add	sp, sp, #28
    83b0:	e8bd8000 	pop	{pc}
    83b4:	0000a0b0 	strheq	sl, [r0], -r0
    83b8:	0000a0ac 	andeq	sl, r0, ip, lsr #1

000083bc <FreeAllocatedMemory>:
    83bc:	e52de004 	push	{lr}		; (str lr, [sp, #-4]!)
    83c0:	e24dd00c 	sub	sp, sp, #12
    83c4:	e58d0004 	str	r0, [sp, #4]
    83c8:	e59d3004 	ldr	r3, [sp, #4]
    83cc:	e2433004 	sub	r3, r3, #4
    83d0:	e5932000 	ldr	r2, [r3]
    83d4:	e59f3034 	ldr	r3, [pc, #52]	; 8410 <FreeAllocatedMemory+0x54>
    83d8:	e1520003 	cmp	r2, r3
    83dc:	1a000007 	bne	8400 <FreeAllocatedMemory+0x44>
    83e0:	e59d0004 	ldr	r0, [sp, #4]
    83e4:	eb00000a 	bl	8414 <concatenateFreeBlocks>
    83e8:	e59d3004 	ldr	r3, [sp, #4]
    83ec:	e2433004 	sub	r3, r3, #4
    83f0:	e3a02000 	mov	r2, #0
    83f4:	e5832000 	str	r2, [r3]
    83f8:	e3a03001 	mov	r3, #1
    83fc:	ea000000 	b	8404 <FreeAllocatedMemory+0x48>
    8400:	e3a03000 	mov	r3, #0
    8404:	e1a00003 	mov	r0, r3
    8408:	e28dd00c 	add	sp, sp, #12
    840c:	e8bd8000 	pop	{pc}
    8410:	44414d66 	strbmi	r4, [r1], #-3430	; 0xd66

00008414 <concatenateFreeBlocks>:
    8414:	e24dd008 	sub	sp, sp, #8
    8418:	e58d0004 	str	r0, [sp, #4]
    841c:	ea000015 	b	8478 <concatenateFreeBlocks+0x64>
    8420:	e59d3004 	ldr	r3, [sp, #4]
    8424:	e5933000 	ldr	r3, [r3]
    8428:	e5933000 	ldr	r3, [r3]
    842c:	e3530000 	cmp	r3, #0
    8430:	1a000003 	bne	8444 <concatenateFreeBlocks+0x30>
    8434:	e59d3004 	ldr	r3, [sp, #4]
    8438:	e3a02000 	mov	r2, #0
    843c:	e5832000 	str	r2, [r3]
    8440:	ea000011 	b	848c <concatenateFreeBlocks+0x78>
    8444:	e59d3004 	ldr	r3, [sp, #4]
    8448:	e5933000 	ldr	r3, [r3]
    844c:	e5932000 	ldr	r2, [r3]
    8450:	e59d3004 	ldr	r3, [sp, #4]
    8454:	e5832000 	str	r2, [r3]
    8458:	e59d3004 	ldr	r3, [sp, #4]
    845c:	e5933000 	ldr	r3, [r3]
    8460:	e5933000 	ldr	r3, [r3]
    8464:	e59d2004 	ldr	r2, [sp, #4]
    8468:	e5922000 	ldr	r2, [r2]
    846c:	e2422004 	sub	r2, r2, #4
    8470:	e5922000 	ldr	r2, [r2]
    8474:	e5832000 	str	r2, [r3]
    8478:	e59d3004 	ldr	r3, [sp, #4]
    847c:	e5933000 	ldr	r3, [r3]
    8480:	e5933000 	ldr	r3, [r3]
    8484:	e3730001 	cmn	r3, #1
    8488:	0affffe4 	beq	8420 <concatenateFreeBlocks+0xc>
    848c:	e28dd008 	add	sp, sp, #8
    8490:	e12fff1e 	bx	lr

00008494 <createHeader>:
    8494:	e24dd008 	sub	sp, sp, #8
    8498:	e58d0004 	str	r0, [sp, #4]
    849c:	e58d1000 	str	r1, [sp]
    84a0:	e59d3000 	ldr	r3, [sp]
    84a4:	e2833002 	add	r3, r3, #2
    84a8:	e1a03103 	lsl	r3, r3, #2
    84ac:	e59d2004 	ldr	r2, [sp, #4]
    84b0:	e0823003 	add	r3, r2, r3
    84b4:	e59d2004 	ldr	r2, [sp, #4]
    84b8:	e2422004 	sub	r2, r2, #4
    84bc:	e5832000 	str	r2, [r3]
    84c0:	e59d3000 	ldr	r3, [sp]
    84c4:	e2833003 	add	r3, r3, #3
    84c8:	e1a03103 	lsl	r3, r3, #2
    84cc:	e59d2004 	ldr	r2, [sp, #4]
    84d0:	e0823003 	add	r3, r2, r3
    84d4:	e59d2004 	ldr	r2, [sp, #4]
    84d8:	e5922000 	ldr	r2, [r2]
    84dc:	e5832000 	str	r2, [r3]
    84e0:	e59d3000 	ldr	r3, [sp]
    84e4:	e2833004 	add	r3, r3, #4
    84e8:	e1a03103 	lsl	r3, r3, #2
    84ec:	e59d2004 	ldr	r2, [sp, #4]
    84f0:	e0823003 	add	r3, r2, r3
    84f4:	e3a02000 	mov	r2, #0
    84f8:	e5832000 	str	r2, [r3]
    84fc:	e59d3000 	ldr	r3, [sp]
    8500:	e2833003 	add	r3, r3, #3
    8504:	e1a03103 	lsl	r3, r3, #2
    8508:	e59d2004 	ldr	r2, [sp, #4]
    850c:	e0823003 	add	r3, r2, r3
    8510:	e1a02003 	mov	r2, r3
    8514:	e59d3004 	ldr	r3, [sp, #4]
    8518:	e5832000 	str	r2, [r3]
    851c:	e59d3004 	ldr	r3, [sp, #4]
    8520:	e2833004 	add	r3, r3, #4
    8524:	e59f2008 	ldr	r2, [pc, #8]	; 8534 <createHeader+0xa0>
    8528:	e5832000 	str	r2, [r3]
    852c:	e28dd008 	add	sp, sp, #8
    8530:	e12fff1e 	bx	lr
    8534:	44414d66 	strbmi	r4, [r1], #-3430	; 0xd66

00008538 <createInitialHeader>:
    8538:	e24dd008 	sub	sp, sp, #8
    853c:	e58d0004 	str	r0, [sp, #4]
    8540:	e59d3004 	ldr	r3, [sp, #4]
    8544:	e2433004 	sub	r3, r3, #4
    8548:	e3a02000 	mov	r2, #0
    854c:	e5832000 	str	r2, [r3]
    8550:	e59d3004 	ldr	r3, [sp, #4]
    8554:	e3a02000 	mov	r2, #0
    8558:	e5832000 	str	r2, [r3]
    855c:	e59d3004 	ldr	r3, [sp, #4]
    8560:	e2833004 	add	r3, r3, #4
    8564:	e3a02000 	mov	r2, #0
    8568:	e5832000 	str	r2, [r3]
    856c:	e28dd008 	add	sp, sp, #8
    8570:	e12fff1e 	bx	lr

00008574 <init_ctx>:
    8574:	e52de004 	push	{lr}		; (str lr, [sp, #-4]!)
    8578:	e24dd01c 	sub	sp, sp, #28
    857c:	e58d000c 	str	r0, [sp, #12]
    8580:	e58d1008 	str	r1, [sp, #8]
    8584:	e58d2004 	str	r2, [sp, #4]
    8588:	e59d2008 	ldr	r2, [sp, #8]
    858c:	e59d300c 	ldr	r3, [sp, #12]
    8590:	e5832000 	str	r2, [r3]
    8594:	e59d0004 	ldr	r0, [sp, #4]
    8598:	ebffff35 	bl	8274 <AllocateMemory>
    859c:	e58d0010 	str	r0, [sp, #16]
    85a0:	e59d2010 	ldr	r2, [sp, #16]
    85a4:	e59d3004 	ldr	r3, [sp, #4]
    85a8:	e0823003 	add	r3, r2, r3
    85ac:	e2432001 	sub	r2, r3, #1
    85b0:	e59d300c 	ldr	r3, [sp, #12]
    85b4:	e5832004 	str	r2, [r3, #4]
    85b8:	e3a03000 	mov	r3, #0
    85bc:	e58d3014 	str	r3, [sp, #20]
    85c0:	ea000007 	b	85e4 <init_ctx+0x70>
    85c4:	e59d300c 	ldr	r3, [sp, #12]
    85c8:	e59d2014 	ldr	r2, [sp, #20]
    85cc:	e2822002 	add	r2, r2, #2
    85d0:	e3a01000 	mov	r1, #0
    85d4:	e7831102 	str	r1, [r3, r2, lsl #2]
    85d8:	e59d3014 	ldr	r3, [sp, #20]
    85dc:	e2833001 	add	r3, r3, #1
    85e0:	e58d3014 	str	r3, [sp, #20]
    85e4:	e59d3014 	ldr	r3, [sp, #20]
    85e8:	e353000a 	cmp	r3, #10
    85ec:	dafffff4 	ble	85c4 <init_ctx+0x50>
    85f0:	e28dd01c 	add	sp, sp, #28
    85f4:	e8bd8000 	pop	{pc}

000085f8 <switch_to>:
    85f8:	e24dd008 	sub	sp, sp, #8
    85fc:	e58d0004 	str	r0, [sp, #4]
    8600:	e59f31ec 	ldr	r3, [pc, #492]	; 87f4 <switch_to+0x1fc>
    8604:	e5933000 	ldr	r3, [r3]
    8608:	e1a0200e 	mov	r2, lr
    860c:	e5832000 	str	r2, [r3]
    8610:	e59f31dc 	ldr	r3, [pc, #476]	; 87f4 <switch_to+0x1fc>
    8614:	e5933000 	ldr	r3, [r3]
    8618:	e1a0200d 	mov	r2, sp
    861c:	e5832004 	str	r2, [r3, #4]
    8620:	e59f31cc 	ldr	r3, [pc, #460]	; 87f4 <switch_to+0x1fc>
    8624:	e5933000 	ldr	r3, [r3]
    8628:	e1a02000 	mov	r2, r0
    862c:	e5832008 	str	r2, [r3, #8]
    8630:	e59f31bc 	ldr	r3, [pc, #444]	; 87f4 <switch_to+0x1fc>
    8634:	e5933000 	ldr	r3, [r3]
    8638:	e1a02001 	mov	r2, r1
    863c:	e583200c 	str	r2, [r3, #12]
    8640:	e59f31ac 	ldr	r3, [pc, #428]	; 87f4 <switch_to+0x1fc>
    8644:	e5933000 	ldr	r3, [r3]
    8648:	e1a02002 	mov	r2, r2
    864c:	e5832010 	str	r2, [r3, #16]
    8650:	e59f319c 	ldr	r3, [pc, #412]	; 87f4 <switch_to+0x1fc>
    8654:	e5933000 	ldr	r3, [r3]
    8658:	e1a02003 	mov	r2, r3
    865c:	e5832014 	str	r2, [r3, #20]
    8660:	e59f318c 	ldr	r3, [pc, #396]	; 87f4 <switch_to+0x1fc>
    8664:	e5933000 	ldr	r3, [r3]
    8668:	e1a02004 	mov	r2, r4
    866c:	e5832018 	str	r2, [r3, #24]
    8670:	e59f317c 	ldr	r3, [pc, #380]	; 87f4 <switch_to+0x1fc>
    8674:	e5933000 	ldr	r3, [r3]
    8678:	e1a02005 	mov	r2, r5
    867c:	e583201c 	str	r2, [r3, #28]
    8680:	e59f316c 	ldr	r3, [pc, #364]	; 87f4 <switch_to+0x1fc>
    8684:	e5933000 	ldr	r3, [r3]
    8688:	e1a02006 	mov	r2, r6
    868c:	e5832020 	str	r2, [r3, #32]
    8690:	e59f315c 	ldr	r3, [pc, #348]	; 87f4 <switch_to+0x1fc>
    8694:	e5933000 	ldr	r3, [r3]
    8698:	e1a02007 	mov	r2, r7
    869c:	e5832024 	str	r2, [r3, #36]	; 0x24
    86a0:	e59f314c 	ldr	r3, [pc, #332]	; 87f4 <switch_to+0x1fc>
    86a4:	e5933000 	ldr	r3, [r3]
    86a8:	e1a02008 	mov	r2, r8
    86ac:	e5832028 	str	r2, [r3, #40]	; 0x28
    86b0:	e59f313c 	ldr	r3, [pc, #316]	; 87f4 <switch_to+0x1fc>
    86b4:	e5933000 	ldr	r3, [r3]
    86b8:	e1a02009 	mov	r2, r9
    86bc:	e583202c 	str	r2, [r3, #44]	; 0x2c
    86c0:	e59f312c 	ldr	r3, [pc, #300]	; 87f4 <switch_to+0x1fc>
    86c4:	e5933000 	ldr	r3, [r3]
    86c8:	e1a0200a 	mov	r2, sl
    86cc:	e5832030 	str	r2, [r3, #48]	; 0x30
    86d0:	e59f311c 	ldr	r3, [pc, #284]	; 87f4 <switch_to+0x1fc>
    86d4:	e5933000 	ldr	r3, [r3]
    86d8:	e1a0200b 	mov	r2, fp
    86dc:	e5832034 	str	r2, [r3, #52]	; 0x34
    86e0:	e59f310c 	ldr	r3, [pc, #268]	; 87f4 <switch_to+0x1fc>
    86e4:	e5933000 	ldr	r3, [r3]
    86e8:	e1a0200c 	mov	r2, ip
    86ec:	e5832038 	str	r2, [r3, #56]	; 0x38
    86f0:	e59f30fc 	ldr	r3, [pc, #252]	; 87f4 <switch_to+0x1fc>
    86f4:	e59d2004 	ldr	r2, [sp, #4]
    86f8:	e5832000 	str	r2, [r3]
    86fc:	e59f30f0 	ldr	r3, [pc, #240]	; 87f4 <switch_to+0x1fc>
    8700:	e5933000 	ldr	r3, [r3]
    8704:	e5933000 	ldr	r3, [r3]
    8708:	e1a0e003 	mov	lr, r3
    870c:	e59f30e0 	ldr	r3, [pc, #224]	; 87f4 <switch_to+0x1fc>
    8710:	e5933000 	ldr	r3, [r3]
    8714:	e5933004 	ldr	r3, [r3, #4]
    8718:	e1a0d003 	mov	sp, r3
    871c:	e59f30d0 	ldr	r3, [pc, #208]	; 87f4 <switch_to+0x1fc>
    8720:	e5933000 	ldr	r3, [r3]
    8724:	e5933008 	ldr	r3, [r3, #8]
    8728:	e1a00003 	mov	r0, r3
    872c:	e59f30c0 	ldr	r3, [pc, #192]	; 87f4 <switch_to+0x1fc>
    8730:	e5933000 	ldr	r3, [r3]
    8734:	e593300c 	ldr	r3, [r3, #12]
    8738:	e1a01003 	mov	r1, r3
    873c:	e59f30b0 	ldr	r3, [pc, #176]	; 87f4 <switch_to+0x1fc>
    8740:	e5933000 	ldr	r3, [r3]
    8744:	e5933010 	ldr	r3, [r3, #16]
    8748:	e1a02003 	mov	r2, r3
    874c:	e59f30a0 	ldr	r3, [pc, #160]	; 87f4 <switch_to+0x1fc>
    8750:	e5933000 	ldr	r3, [r3]
    8754:	e5933014 	ldr	r3, [r3, #20]
    8758:	e1a03003 	mov	r3, r3
    875c:	e59f3090 	ldr	r3, [pc, #144]	; 87f4 <switch_to+0x1fc>
    8760:	e5933000 	ldr	r3, [r3]
    8764:	e5933018 	ldr	r3, [r3, #24]
    8768:	e1a04003 	mov	r4, r3
    876c:	e59f3080 	ldr	r3, [pc, #128]	; 87f4 <switch_to+0x1fc>
    8770:	e5933000 	ldr	r3, [r3]
    8774:	e593301c 	ldr	r3, [r3, #28]
    8778:	e1a05003 	mov	r5, r3
    877c:	e59f3070 	ldr	r3, [pc, #112]	; 87f4 <switch_to+0x1fc>
    8780:	e5933000 	ldr	r3, [r3]
    8784:	e5933020 	ldr	r3, [r3, #32]
    8788:	e1a06003 	mov	r6, r3
    878c:	e59f3060 	ldr	r3, [pc, #96]	; 87f4 <switch_to+0x1fc>
    8790:	e5933000 	ldr	r3, [r3]
    8794:	e5933024 	ldr	r3, [r3, #36]	; 0x24
    8798:	e1a07003 	mov	r7, r3
    879c:	e59f3050 	ldr	r3, [pc, #80]	; 87f4 <switch_to+0x1fc>
    87a0:	e5933000 	ldr	r3, [r3]
    87a4:	e5933028 	ldr	r3, [r3, #40]	; 0x28
    87a8:	e1a08003 	mov	r8, r3
    87ac:	e59f3040 	ldr	r3, [pc, #64]	; 87f4 <switch_to+0x1fc>
    87b0:	e5933000 	ldr	r3, [r3]
    87b4:	e593302c 	ldr	r3, [r3, #44]	; 0x2c
    87b8:	e1a09003 	mov	r9, r3
    87bc:	e59f3030 	ldr	r3, [pc, #48]	; 87f4 <switch_to+0x1fc>
    87c0:	e5933000 	ldr	r3, [r3]
    87c4:	e5933030 	ldr	r3, [r3, #48]	; 0x30
    87c8:	e1a0a003 	mov	sl, r3
    87cc:	e59f3020 	ldr	r3, [pc, #32]	; 87f4 <switch_to+0x1fc>
    87d0:	e5933000 	ldr	r3, [r3]
    87d4:	e5933034 	ldr	r3, [r3, #52]	; 0x34
    87d8:	e1a0b003 	mov	fp, r3
    87dc:	e59f3010 	ldr	r3, [pc, #16]	; 87f4 <switch_to+0x1fc>
    87e0:	e5933000 	ldr	r3, [r3]
    87e4:	e5933038 	ldr	r3, [r3, #56]	; 0x38
    87e8:	e1a0c003 	mov	ip, r3
    87ec:	e28dd008 	add	sp, sp, #8
    87f0:	e12fff1e 	bx	lr
    87f4:	0000a070 	andeq	sl, r0, r0, ror r0

Disassembly of section .rodata:

00009000 <STACK_SIZE>:
    9000:	000186a0 	andeq	r8, r1, r0, lsr #13

Disassembly of section .bss:

0000a000 <bss>:
	...

0000a038 <ctx_init>:
	...

0000a070 <current_ctx>:
    a070:	00000000 	andeq	r0, r0, r0

0000a074 <ctx_B>:
	...

0000a0ac <isInitialised>:
    a0ac:	00000000 	andeq	r0, r0, r0

0000a0b0 <heap>:
	...

Disassembly of section .ARM.attributes:

00000000 <.ARM.attributes>:
   0:	00003141 	andeq	r3, r0, r1, asr #2
   4:	61656100 	cmnvs	r5, r0, lsl #2
   8:	01006962 	tsteq	r0, r2, ror #18
   c:	00000027 	andeq	r0, r0, r7, lsr #32
  10:	005a3605 	subseq	r3, sl, r5, lsl #12
  14:	01080706 	tsteq	r8, r6, lsl #14
  18:	020a0109 	andeq	r0, sl, #1073741826	; 0x40000002
  1c:	01140412 	tsteq	r4, r2, lsl r4
  20:	03170115 	tsteq	r7, #1073741829	; 0x40000005
  24:	011a0118 	tsteq	sl, r8, lsl r1
  28:	011c031b 	tsteq	ip, fp, lsl r3
  2c:	012c0122 	teqeq	ip, r2, lsr #2
  30:	Address 0x0000000000000030 is out of bounds.


Disassembly of section .comment:

00000000 <.comment>:
   0:	3a434347 	bcc	10d0d24 <_bss_end+0x10c5d24>
   4:	4e472820 	cdpmi	8, 4, cr2, cr7, cr0, {1}
   8:	34202955 	strtcc	r2, [r0], #-2389	; 0x955
   c:	312e372e 	teqcc	lr, lr, lsr #14
	...

Disassembly of section .debug_line:

00000000 <.debug_line>:
   0:	0000004f 	andeq	r0, r0, pc, asr #32
   4:	00200002 	eoreq	r0, r0, r2
   8:	01020000 	mrseq	r0, (UNDEF: 2)
   c:	000d0efb 	strdeq	r0, [sp], -fp
  10:	01010101 	tsteq	r1, r1, lsl #2
  14:	01000000 	mrseq	r0, (UNDEF: 0)
  18:	00010000 	andeq	r0, r1, r0
  1c:	74636576 	strbtvc	r6, [r3], #-1398	; 0x576
  20:	2e73726f 	cdpcs	2, 7, cr7, cr3, cr15, {3}
  24:	00000073 	andeq	r0, r0, r3, ror r0
  28:	05000000 	streq	r0, [r0, #-0]
  2c:	00800002 	addeq	r0, r0, r2
  30:	2f4d1900 	svccs	0x004d1900
  34:	2f2f2f2f 	svccs	0x002f2f2f
  38:	312f2f31 	teqcc	pc, r1, lsr pc	; <UNPREDICTABLE>
  3c:	2f312f2f 	svccs	0x00312f2f
  40:	2f32342f 	svccs	0x0032342f
  44:	2f322f32 	svccs	0x00322f32
  48:	2f322f32 	svccs	0x00322f32
  4c:	02023232 	andeq	r3, r2, #536870915	; 0x20000003
  50:	bc010100 	stflts	f0, [r1], {-0}
  54:	02000000 	andeq	r0, r0, #0
  58:	00007f00 	andeq	r7, r0, r0, lsl #30
  5c:	fb010200 	blx	40866 <_bss_end+0x35866>
  60:	01000d0e 	tsteq	r0, lr, lsl #26
  64:	00010101 	andeq	r0, r1, r1, lsl #2
  68:	00010000 	andeq	r0, r1, r0
  6c:	6f2f0100 	svcvs	0x002f0100
  70:	342f7470 	strtcc	r7, [pc], #-1136	; 78 <_start-0x7f88>
  74:	4c2d6669 	stcmi	6, cr6, [sp], #-420	; 0xfffffe5c
  78:	72612f53 	rsbvc	r2, r1, #332	; 0x14c
  7c:	6f6e2d6d 	svcvs	0x006e2d6d
  80:	652d656e 	strvs	r6, [sp, #-1390]!	; 0x56e
  84:	2d696261 	sfmcs	f6, 2, [r9, #-388]!	; 0xfffffe7c
  88:	2f636367 	svccs	0x00636367
  8c:	2f62696c 	svccs	0x0062696c
  90:	2f636367 	svccs	0x00636367
  94:	2d6d7261 	sfmcs	f7, 2, [sp, #-388]!	; 0xfffffe7c
  98:	656e6f6e 	strbvs	r6, [lr, #-3950]!	; 0xf6e
  9c:	6261652d 	rsbvs	r6, r1, #188743680	; 0xb400000
  a0:	2e342f69 	cdpcs	15, 3, cr2, cr4, cr9, {3}
  a4:	2f312e37 	svccs	0x00312e37
  a8:	6c636e69 	stclvs	14, cr6, [r3], #-420	; 0xfffffe5c
  ac:	00656475 	rsbeq	r6, r5, r5, ror r4
  b0:	746f6e00 	strbtvc	r6, [pc], #-3584	; b8 <_start-0x7f48>
  b4:	6e69616d 	powvsez	f6, f1, #5.0
  b8:	0000632e 	andeq	r6, r0, lr, lsr #6
  bc:	72700000 	rsbsvc	r0, r0, #0
  c0:	7365636f 	cmnvc	r5, #-1140850687	; 0xbc000001
  c4:	00682e73 	rsbeq	r2, r8, r3, ror lr
  c8:	73000000 	movwvc	r0, #0
  cc:	6e696474 	mcrvs	4, 3, r6, cr9, cr4, {3}
  d0:	63672d74 	cmnvs	r7, #7424	; 0x1d00
  d4:	00682e63 	rsbeq	r2, r8, r3, ror #28
  d8:	00000001 	andeq	r0, r0, r1
  dc:	78020500 	stmdavc	r2, {r8, sl}
  e0:	03000080 	movweq	r0, #128	; 0x80
  e4:	004b010b 	subeq	r0, fp, fp, lsl #2
  e8:	4d010402 	cfstrsmi	mvf0, [r1, #-8]
  ec:	01040200 	mrseq	r0, R12_usr
  f0:	04020067 	streq	r0, [r2], #-103	; 0x67
  f4:	4b4f4b01 	blmi	13d2d00 <_bss_end+0x13c7d00>
  f8:	01040200 	mrseq	r0, R12_usr
  fc:	0402004d 	streq	r0, [r2], #-77	; 0x4d
 100:	02006701 	andeq	r6, r0, #262144	; 0x40000
 104:	504b0104 	subpl	r0, fp, r4, lsl #2
 108:	67bcbb2f 	ldrvs	fp, [ip, pc, lsr #22]!
 10c:	12022f4d 	andne	r2, r2, #308	; 0x134
 110:	4f010100 	svcmi	0x00010100
 114:	02000000 	andeq	r0, r0, #0
 118:	00001b00 	andeq	r1, r0, r0, lsl #22
 11c:	fb010200 	blx	40926 <_bss_end+0x35926>
 120:	01000d0e 	tsteq	r0, lr, lsl #26
 124:	00010101 	andeq	r0, r1, r1, lsl #2
 128:	00010000 	andeq	r0, r1, r0
 12c:	68000100 	stmdavs	r0, {r8}
 130:	00632e77 	rsbeq	r2, r3, r7, ror lr
 134:	00000000 	andeq	r0, r0, r0
 138:	40020500 	andmi	r0, r2, r0, lsl #10
 13c:	03000081 	movweq	r0, #129	; 0x81
 140:	67300117 			; <UNDEFINED> instruction: 0x67300117
 144:	4f67304e 	svcmi	0x0067304e
 148:	6867674b 	stmdavs	r7!, {r0, r1, r3, r6, r8, r9, sl, sp, lr}^
 14c:	8209032f 	andhi	r0, r9, #-1140850688	; 0xbc000000
 150:	2f4e672f 	svccs	0x004e672f
 154:	674f5167 	strbvs	r5, [pc, -r7, ror #2]
 158:	69676767 	stmdbvs	r7!, {r0, r1, r2, r5, r6, r8, r9, sl, sp, lr}^
 15c:	316a6767 	cmncc	sl, r7, ror #14
 160:	000e0267 	andeq	r0, lr, r7, ror #4
 164:	00ef0101 	rsceq	r0, pc, r1, lsl #2
 168:	00020000 	andeq	r0, r2, r0
 16c:	0000008d 	andeq	r0, r0, sp, lsl #1
 170:	0efb0102 	cdpeq	1, 15, cr0, cr11, cr2, {0}
 174:	0101000d 	tsteq	r1, sp
 178:	00000101 	andeq	r0, r0, r1, lsl #2
 17c:	00000100 	andeq	r0, r0, r0, lsl #2
 180:	706f2f01 	rsbvc	r2, pc, r1, lsl #30
 184:	69342f74 	ldmdbvs	r4!, {r2, r4, r5, r6, r8, r9, sl, fp, sp}
 188:	534c2d66 	movtpl	r2, #52582	; 0xcd66
 18c:	6d72612f 	ldfvse	f6, [r2, #-188]!	; 0xffffff44
 190:	6e6f6e2d 	cdpvs	14, 6, cr6, cr15, cr13, {1}
 194:	61652d65 	cmnvs	r5, r5, ror #26
 198:	672d6962 	strvs	r6, [sp, -r2, ror #18]!
 19c:	6c2f6363 	stcvs	3, cr6, [pc], #-396	; 18 <_start-0x7fe8>
 1a0:	672f6269 	strvs	r6, [pc, -r9, ror #4]!
 1a4:	612f6363 	teqvs	pc, r3, ror #6
 1a8:	6e2d6d72 	mcrvs	13, 1, r6, cr13, cr2, {3}
 1ac:	2d656e6f 	stclcs	14, cr6, [r5, #-444]!	; 0xfffffe44
 1b0:	69626165 	stmdbvs	r2!, {r0, r2, r5, r6, r8, sp, lr}^
 1b4:	372e342f 	strcc	r3, [lr, -pc, lsr #8]!
 1b8:	692f312e 	stmdbvs	pc!, {r1, r2, r3, r5, r8, ip, sp}	; <UNPREDICTABLE>
 1bc:	756c636e 	strbvc	r6, [ip, #-878]!	; 0x36e
 1c0:	00006564 	andeq	r6, r0, r4, ror #10
 1c4:	6f6c6c61 	svcvs	0x006c6c61
 1c8:	65746163 	ldrbvs	r6, [r4, #-355]!	; 0x163
 1cc:	6f6d654d 	svcvs	0x006d654d
 1d0:	632e7972 	teqvs	lr, #1867776	; 0x1c8000
 1d4:	00000000 	andeq	r0, r0, r0
 1d8:	69647473 	stmdbvs	r4!, {r0, r1, r4, r5, r6, sl, ip, sp, lr}^
 1dc:	672d746e 	strvs	r7, [sp, -lr, ror #8]!
 1e0:	682e6363 	stmdavs	lr!, {r0, r1, r5, r6, r8, r9, sp, lr}
 1e4:	00000100 	andeq	r0, r0, r0, lsl #2
 1e8:	6f6c6c61 	svcvs	0x006c6c61
 1ec:	65746163 	ldrbvs	r6, [r4, #-355]!	; 0x163
 1f0:	6f6d654d 	svcvs	0x006d654d
 1f4:	682e7972 	stmdavs	lr!, {r1, r4, r5, r6, r8, fp, ip, sp, lr}
 1f8:	00000000 	andeq	r0, r0, r0
 1fc:	02050000 	andeq	r0, r5, #0
 200:	00008274 	andeq	r8, r0, r4, ror r2
 204:	67012603 	strvs	r2, [r1, -r3, lsl #12]
 208:	834c674c 	movthi	r6, #51020	; 0xc74c
 20c:	2f4b694b 	svccs	0x004b694b
 210:	4b83bb9f 	blmi	fe0ef094 <_bss_end+0xfe0e4094>
 214:	682108a0 	stmdavs	r1!, {r5, r7, fp}
 218:	04020031 	streq	r0, [r2], #-49	; 0x31
 21c:	66730301 	ldrbtvs	r0, [r3], -r1, lsl #6
 220:	02040200 	andeq	r0, r4, #0
 224:	03068206 	movweq	r8, #25094	; 0x6206
 228:	6734820a 	ldrvs	r8, [r4, -sl, lsl #4]!
 22c:	67a24b68 	strvs	r4, [r2, r8, ror #22]!
 230:	4c834bbb 	fstmiaxmi	r3, {d4-d96}	;@ Deprecated
 234:	820a032f 	andhi	r0, sl, #-1140850688	; 0xbc000000
 238:	679f2f4b 	ldrvs	r2, [pc, fp, asr #30]
 23c:	02009f30 	andeq	r9, r0, #192	; 0xc0
 240:	7a030104 	bvc	c0658 <_bss_end+0xb5658>
 244:	9e0903f2 	mcrls	3, 0, r0, cr9, cr2, {7}
 248:	f3f3674f 	vcvt.s<illegal width 8>.f<illegal width 8>	q11, <illegal reg q7.5>
 24c:	6b83f3d7 	blvs	fe0fd1b0 <_bss_end+0xfe0f21b0>
 250:	8367834b 	cmnhi	r7, #738197505	; 0x2c000001
 254:	01000402 	tsteq	r0, r2, lsl #8
 258:	0000a801 	andeq	sl, r0, r1, lsl #16
 25c:	7f000200 	svcvc	0x00000200
 260:	02000000 	andeq	r0, r0, #0
 264:	0d0efb01 	vstreq	d15, [lr, #-4]
 268:	01010100 	mrseq	r0, (UNDEF: 17)
 26c:	00000001 	andeq	r0, r0, r1
 270:	01000001 	tsteq	r0, r1
 274:	74706f2f 	ldrbtvc	r6, [r0], #-3887	; 0xf2f
 278:	6669342f 	strbtvs	r3, [r9], -pc, lsr #8
 27c:	2f534c2d 	svccs	0x00534c2d
 280:	2d6d7261 	sfmcs	f7, 2, [sp, #-388]!	; 0xfffffe7c
 284:	656e6f6e 	strbvs	r6, [lr, #-3950]!	; 0xf6e
 288:	6261652d 	rsbvs	r6, r1, #188743680	; 0xb400000
 28c:	63672d69 	cmnvs	r7, #6720	; 0x1a40
 290:	696c2f63 	stmdbvs	ip!, {r0, r1, r5, r6, r8, r9, sl, fp, sp}^
 294:	63672f62 	cmnvs	r7, #392	; 0x188
 298:	72612f63 	rsbvc	r2, r1, #396	; 0x18c
 29c:	6f6e2d6d 	svcvs	0x006e2d6d
 2a0:	652d656e 	strvs	r6, [sp, #-1390]!	; 0x56e
 2a4:	2f696261 	svccs	0x00696261
 2a8:	2e372e34 	mrccs	14, 1, r2, cr7, cr4, {1}
 2ac:	6e692f31 	mcrvs	15, 3, r2, cr9, cr1, {1}
 2b0:	64756c63 	ldrbtvs	r6, [r5], #-3171	; 0xc63
 2b4:	70000065 	andvc	r0, r0, r5, rrx
 2b8:	65636f72 	strbvs	r6, [r3, #-3954]!	; 0xf72
 2bc:	632e7373 	teqvs	lr, #-872415231	; 0xcc000001
 2c0:	00000000 	andeq	r0, r0, r0
 2c4:	69647473 	stmdbvs	r4!, {r0, r1, r4, r5, r6, sl, ip, sp, lr}^
 2c8:	672d746e 	strvs	r7, [sp, -lr, ror #8]!
 2cc:	682e6363 	stmdavs	lr!, {r0, r1, r5, r6, r8, r9, sp, lr}
 2d0:	00000100 	andeq	r0, r0, r0, lsl #2
 2d4:	636f7270 	cmnvs	pc, #7
 2d8:	2e737365 	cdpcs	3, 7, cr7, cr3, cr5, {3}
 2dc:	00000068 	andeq	r0, r0, r8, rrx
 2e0:	05000000 	streq	r0, [r0, #-0]
 2e4:	00857402 	addeq	r7, r5, r2, lsl #8
 2e8:	69a01600 	stmibvs	r0!, {r9, sl, ip}
 2ec:	0200bd69 	andeq	fp, r0, #6720	; 0x1a40
 2f0:	00680204 	rsbeq	r0, r8, r4, lsl #4
 2f4:	9c020402 	cfstrsls	mvf0, [r2], {2}
 2f8:	01040200 	mrseq	r0, R12_usr
 2fc:	6a066606 	bvs	199b1c <_bss_end+0x18eb1c>
 300:	01000402 	tsteq	r0, r2, lsl #8
 304:	0000b501 	andeq	fp, r0, r1, lsl #10
 308:	82000200 	andhi	r0, r0, #0
 30c:	02000000 	andeq	r0, r0, #0
 310:	0d0efb01 	vstreq	d15, [lr, #-4]
 314:	01010100 	mrseq	r0, (UNDEF: 17)
 318:	00000001 	andeq	r0, r0, r1
 31c:	01000001 	tsteq	r0, r1
 320:	74706f2f 	ldrbtvc	r6, [r0], #-3887	; 0xf2f
 324:	6669342f 	strbtvs	r3, [r9], -pc, lsr #8
 328:	2f534c2d 	svccs	0x00534c2d
 32c:	2d6d7261 	sfmcs	f7, 2, [sp, #-388]!	; 0xfffffe7c
 330:	656e6f6e 	strbvs	r6, [lr, #-3950]!	; 0xf6e
 334:	6261652d 	rsbvs	r6, r1, #188743680	; 0xb400000
 338:	63672d69 	cmnvs	r7, #6720	; 0x1a40
 33c:	696c2f63 	stmdbvs	ip!, {r0, r1, r5, r6, r8, r9, sl, fp, sp}^
 340:	63672f62 	cmnvs	r7, #392	; 0x188
 344:	72612f63 	rsbvc	r2, r1, #396	; 0x18c
 348:	6f6e2d6d 	svcvs	0x006e2d6d
 34c:	652d656e 	strvs	r6, [sp, #-1390]!	; 0x56e
 350:	2f696261 	svccs	0x00696261
 354:	2e372e34 	mrccs	14, 1, r2, cr7, cr4, {1}
 358:	6e692f31 	mcrvs	15, 3, r2, cr9, cr1, {1}
 35c:	64756c63 	ldrbtvs	r6, [r5], #-3171	; 0xc63
 360:	64000065 	strvs	r0, [r0], #-101	; 0x65
 364:	61707369 	cmnvs	r0, r9, ror #6
 368:	65686374 	strbvs	r6, [r8, #-884]!	; 0x374
 36c:	00632e72 	rsbeq	r2, r3, r2, ror lr
 370:	70000000 	andvc	r0, r0, r0
 374:	65636f72 	strbvs	r6, [r3, #-3954]!	; 0xf72
 378:	682e7373 	stmdavs	lr!, {r0, r1, r4, r5, r6, r8, r9, ip, sp, lr}
 37c:	00000000 	andeq	r0, r0, r0
 380:	69647473 	stmdbvs	r4!, {r0, r1, r4, r5, r6, sl, ip, sp, lr}^
 384:	672d746e 	strvs	r7, [sp, -lr, ror #8]!
 388:	682e6363 	stmdavs	lr!, {r0, r1, r5, r6, r8, r9, sp, lr}
 38c:	00000100 	andeq	r0, r0, r0, lsl #2
 390:	02050000 	andeq	r0, r5, #0
 394:	000085f8 	strdeq	r8, [r0], -r8	; <UNPREDICTABLE>
 398:	87834d14 	usada8hi	r3, r4, sp, r4
 39c:	83838383 	orrhi	r8, r3, #201326594	; 0xc000002
 3a0:	83838383 	orrhi	r8, r3, #201326594	; 0xc000002
 3a4:	83838383 	orrhi	r8, r3, #201326594	; 0xc000002
 3a8:	87836986 	strhi	r6, [r3, r6, lsl #19]
 3ac:	83838383 	orrhi	r8, r3, #201326594	; 0xc000002
 3b0:	83838383 	orrhi	r8, r3, #201326594	; 0xc000002
 3b4:	83838383 	orrhi	r8, r3, #201326594	; 0xc000002
 3b8:	00060284 	andeq	r0, r6, r4, lsl #5
 3bc:	Address 0x00000000000003bc is out of bounds.


Disassembly of section .debug_info:

00000000 <.debug_info>:
   0:	0000006d 	andeq	r0, r0, sp, rrx
   4:	00000002 	andeq	r0, r0, r2
   8:	01040000 	mrseq	r0, (UNDEF: 4)
   c:	00000000 	andeq	r0, r0, r0
  10:	00008000 	andeq	r8, r0, r0
  14:	00008078 	andeq	r8, r0, r8, ror r0
  18:	74636576 	strbtvc	r6, [r3], #-1398	; 0x576
  1c:	2e73726f 	cdpcs	2, 7, cr7, cr3, cr15, {3}
  20:	682f0073 	stmdavs	pc!, {r0, r1, r4, r5, r6}	; <UNPREDICTABLE>
  24:	2f656d6f 	svccs	0x00656d6f
  28:	61646d70 	smcvs	18128	; 0x46d0
  2c:	73757472 	cmnvc	r5, #1912602624	; 0x72000000
  30:	636f442f 	cmnvs	pc, #788529152	; 0x2f000000
  34:	6e656d75 	mcrvs	13, 3, r6, cr5, cr5, {3}
  38:	722f7374 	eorvc	r7, pc, #-805306367	; 0xd0000001
  3c:	65627361 	strbvs	r7, [r2, #-865]!	; 0x361
  40:	5f797272 	svcpl	0x00797272
  44:	6f2f6970 	svcvs	0x002f6970
  48:	6e6f6472 	mcrvs	4, 3, r6, cr15, cr2, {3}
  4c:	636e616e 	cmnvs	lr, #-2147483621	; 0x8000001b
  50:	6e656d65 	cdpvs	13, 6, cr6, cr5, cr5, {3}
  54:	6f635f74 	svcvs	0x00635f74
  58:	62616c6c 	rsbvs	r6, r1, #27648	; 0x6c00
  5c:	7461726f 	strbtvc	r7, [r1], #-623	; 0x26f
  60:	47006669 	strmi	r6, [r0, -r9, ror #12]
  64:	4120554e 	teqmi	r0, lr, asr #10
  68:	2e322053 	mrccs	0, 1, r2, cr2, cr3, {2}
  6c:	01003232 	tsteq	r0, r2, lsr r2
  70:	00019780 	andeq	r9, r1, r0, lsl #15
  74:	14000200 	strne	r0, [r0], #-512	; 0x200
  78:	04000000 	streq	r0, [r0], #-0
  7c:	0000e501 	andeq	lr, r0, r1, lsl #10
  80:	00150100 	andseq	r0, r5, r0, lsl #2
  84:	00810000 	addeq	r0, r1, r0
  88:	80780000 	rsbshi	r0, r8, r0
  8c:	81400000 	mrshi	r0, (UNDEF: 64)
  90:	00530000 	subseq	r0, r3, r0
  94:	01020000 	mrseq	r0, (UNDEF: 2)
  98:	00002f06 	andeq	r2, r0, r6, lsl #30
  9c:	05020200 	streq	r0, [r2, #-512]	; 0x200
  a0:	000000f1 	strdeq	r0, [r0], -r1
  a4:	d0050402 	andle	r0, r5, r2, lsl #8
  a8:	02000000 	andeq	r0, r0, #0
  ac:	00cb0508 	sbceq	r0, fp, r8, lsl #10
  b0:	01020000 	mrseq	r0, (UNDEF: 2)
  b4:	00002d08 	andeq	r2, r0, r8, lsl #26
  b8:	07020200 	streq	r0, [r2, -r0, lsl #4]
  bc:	0000003b 	andeq	r0, r0, fp, lsr r0
  c0:	00010e03 	andeq	r0, r1, r3, lsl #28
  c4:	5a340300 	bpl	d00ccc <_bss_end+0xcf5ccc>
  c8:	02000000 	andeq	r0, r0, #0
  cc:	006f0704 	rsbeq	r0, pc, r4, lsl #14
  d0:	08020000 	stmdaeq	r2, {}	; <UNPREDICTABLE>
  d4:	00006a07 	andeq	r6, r0, r7, lsl #20
  d8:	05040400 	streq	r0, [r4, #-1024]	; 0x400
  dc:	00746e69 	rsbseq	r6, r4, r9, ror #28
  e0:	74070402 	strvc	r0, [r7], #-1026	; 0x402
  e4:	05000000 	streq	r0, [r0, #-0]
  e8:	a9050238 	stmdbge	r5, {r3, r4, r5, r9}
  ec:	06000000 	streq	r0, [r0], -r0
  f0:	0000005a 	andeq	r0, r0, sl, asr r0
  f4:	004f0602 	subeq	r0, pc, r2, lsl #12
  f8:	23020000 	movwcs	r0, #8192	; 0x2000
  fc:	01230600 	teqeq	r3, r0, lsl #12
 100:	07020000 	streq	r0, [r2, -r0]
 104:	0000004f 	andeq	r0, r0, pc, asr #32
 108:	06042302 	streq	r2, [r4], -r2, lsl #6
 10c:	000000fb 	strdeq	r0, [r0], -fp
 110:	00a90802 	adceq	r0, r9, r2, lsl #16
 114:	23020000 	movwcs	r0, #8192	; 0x2000
 118:	4f070008 	svcmi	0x00070008
 11c:	b9000000 	stmdblt	r0, {}	; <UNPREDICTABLE>
 120:	08000000 	stmdaeq	r0, {}	; <UNPREDICTABLE>
 124:	000000b9 	strheq	r0, [r0], -r9
 128:	0402000b 	streq	r0, [r2], #-11
 12c:	0000c207 	andeq	ip, r0, r7, lsl #4
 130:	00270300 	eoreq	r0, r7, r0, lsl #6
 134:	09020000 	stmdbeq	r2, {}	; <UNPREDICTABLE>
 138:	00000076 	andeq	r0, r0, r6, ror r0
 13c:	004e0109 	subeq	r0, lr, r9, lsl #2
 140:	0b010000 	bleq	40148 <_bss_end+0x35148>
 144:	00008078 	andeq	r8, r0, r8, ror r0
 148:	000080a4 	andeq	r8, r0, r4, lsr #1
 14c:	00000000 	andeq	r0, r0, r0
 150:	0000f301 	andeq	pc, r0, r1, lsl #6
 154:	00000a00 	andeq	r0, r0, r0, lsl #20
 158:	0d010000 	stceq	0, cr0, [r1, #-0]
 15c:	00000068 	andeq	r0, r0, r8, rrx
 160:	00749102 	rsbseq	r9, r4, r2, lsl #2
 164:	00540109 	subseq	r0, r4, r9, lsl #2
 168:	16010000 	strne	r0, [r1], -r0
 16c:	000080a4 	andeq	r8, r0, r4, lsr #1
 170:	000080d0 	ldrdeq	r8, [r0], -r0
 174:	0000002c 	andeq	r0, r0, ip, lsr #32
 178:	00011b01 	andeq	r1, r1, r1, lsl #22
 17c:	00050a00 	andeq	r0, r5, r0, lsl #20
 180:	18010000 	stmdane	r1, {}	; <UNPREDICTABLE>
 184:	00000068 	andeq	r0, r0, r8, rrx
 188:	00749102 	rsbseq	r9, r4, r2, lsl #2
 18c:	001f010b 	andseq	r0, pc, fp, lsl #2
 190:	22010000 	andcs	r0, r1, #0
 194:	00006801 	andeq	r6, r0, r1, lsl #16
 198:	0080d000 	addeq	sp, r0, r0
 19c:	00814000 	addeq	r4, r1, r0
 1a0:	00005800 	andeq	r5, r0, r0, lsl #16
 1a4:	d90c0100 	stmdble	ip, {r8}
 1a8:	02000000 	andeq	r0, r0, #0
 1ac:	0001470b 	andeq	r4, r1, fp, lsl #14
 1b0:	03050100 	movweq	r0, #20736	; 0x5100
 1b4:	0000a070 	andeq	sl, r0, r0, ror r0
 1b8:	00c0040d 	sbceq	r0, r0, sp, lsl #8
 1bc:	0a0c0000 	beq	3001c4 <_bss_end+0x2f51c4>
 1c0:	01000000 	mrseq	r0, (UNDEF: 0)
 1c4:	00015f04 	andeq	r5, r1, r4, lsl #30
 1c8:	03050100 	movweq	r0, #20736	; 0x5100
 1cc:	00009000 	andeq	r9, r0, r0
 1d0:	0000680e 	andeq	r6, r0, lr, lsl #16
 1d4:	01170c00 	tsteq	r7, r0, lsl #24
 1d8:	06010000 	streq	r0, [r1], -r0
 1dc:	000000c0 	andeq	r0, r0, r0, asr #1
 1e0:	00030501 	andeq	r0, r3, r1, lsl #10
 1e4:	0c0000a0 	stceq	0, cr0, [r0], {160}	; 0xa0
 1e8:	0000011d 	andeq	r0, r0, sp, lsl r1
 1ec:	00c00701 	sbceq	r0, r0, r1, lsl #14
 1f0:	05010000 	streq	r0, [r1, #-0]
 1f4:	00a07403 	adceq	r7, r0, r3, lsl #8
 1f8:	01050c00 	tsteq	r5, r0, lsl #24
 1fc:	08010000 	stmdaeq	r1, {}	; <UNPREDICTABLE>
 200:	000000c0 	andeq	r0, r0, r0, asr #1
 204:	38030501 	stmdacc	r3, {r0, r8, sl}
 208:	000000a0 	andeq	r0, r0, r0, lsr #1
 20c:	000000d4 	ldrdeq	r0, [r0], -r4
 210:	00db0002 	sbcseq	r0, fp, r2
 214:	01040000 	mrseq	r0, (UNDEF: 4)
 218:	000000e5 	andeq	r0, r0, r5, ror #1
 21c:	00013f01 	andeq	r3, r1, r1, lsl #30
 220:	00008100 	andeq	r8, r0, r0, lsl #2
 224:	00814000 	addeq	r4, r1, r0
 228:	00827400 	addeq	r7, r2, r0, lsl #8
 22c:	00011300 	andeq	r1, r1, r0, lsl #6
 230:	65010200 	strvs	r0, [r1, #-512]	; 0x200
 234:	01000001 	tsteq	r0, r1
 238:	00814017 	addeq	r4, r1, r7, lsl r0
 23c:	00815800 	addeq	r5, r1, r0, lsl #16
 240:	00007800 	andeq	r7, r0, r0, lsl #16
 244:	01020100 	mrseq	r0, (UNDEF: 18)
 248:	0000012d 	andeq	r0, r0, sp, lsr #2
 24c:	81581e01 	cmphi	r8, r1, lsl #28
 250:	81700000 	cmnhi	r0, r0
 254:	00980000 	addseq	r0, r8, r0
 258:	03010000 	movweq	r0, #4096	; 0x1000
 25c:	00015301 	andeq	r5, r1, r1, lsl #6
 260:	70260100 	eorvc	r0, r6, r0, lsl #2
 264:	b0000081 	andlt	r0, r0, r1, lsl #1
 268:	b8000081 	stmdalt	r0, {r0, r7}
 26c:	01000000 	mrseq	r0, (UNDEF: 0)
 270:	00000076 	andeq	r0, r0, r6, ror r0
 274:	00787204 	rsbseq	r7, r8, r4, lsl #4
 278:	00762801 	rsbseq	r2, r6, r1, lsl #16
 27c:	91020000 	mrsls	r0, (UNDEF: 2)
 280:	04050074 	streq	r0, [r5], #-116	; 0x74
 284:	00007407 	andeq	r7, r0, r7, lsl #8
 288:	76010200 	strvc	r0, [r1], -r0, lsl #4
 28c:	01000001 	tsteq	r0, r1
 290:	0081b035 	addeq	fp, r1, r5, lsr r0
 294:	0081c800 	addeq	ip, r1, r0, lsl #16
 298:	0000e400 	andeq	lr, r0, r0, lsl #8
 29c:	01020100 	mrseq	r0, (UNDEF: 18)
 2a0:	00000144 	andeq	r0, r0, r4, asr #2
 2a4:	81c83b01 	bichi	r3, r8, r1, lsl #22
 2a8:	81e00000 	mvnhi	r0, r0
 2ac:	01040000 	mrseq	r0, (UNDEF: 4)
 2b0:	06010000 	streq	r0, [r1], -r0
 2b4:	00014b01 	andeq	r4, r1, r1, lsl #22
 2b8:	e0440100 	sub	r0, r4, r0, lsl #2
 2bc:	74000081 	strvc	r0, [r0], #-129	; 0x81
 2c0:	24000082 	strcs	r0, [r0], #-130	; 0x82
 2c4:	01000001 	tsteq	r0, r1
 2c8:	00617204 	rsbeq	r7, r1, r4, lsl #4
 2cc:	00764601 	rsbseq	r4, r6, r1, lsl #12
 2d0:	91020000 	mrsls	r0, (UNDEF: 2)
 2d4:	78720474 	ldmdavc	r2!, {r2, r4, r5, r6, sl}^
 2d8:	76470100 	strbvc	r0, [r7], -r0, lsl #2
 2dc:	02000000 	andeq	r0, r0, #0
 2e0:	00007091 	muleq	r0, r1, r0
 2e4:	000001d3 	ldrdeq	r0, [r0], -r3
 2e8:	014d0002 	cmpeq	sp, r2
 2ec:	01040000 	mrseq	r0, (UNDEF: 4)
 2f0:	000000e5 	andeq	r0, r0, r5, ror #1
 2f4:	0001d601 	andeq	sp, r1, r1, lsl #12
 2f8:	00008100 	andeq	r8, r0, r0, lsl #2
 2fc:	00827400 	addeq	r7, r2, r0, lsl #8
 300:	00857400 	addeq	r7, r5, r0, lsl #8
 304:	00016600 	andeq	r6, r1, r0, lsl #12
 308:	06010200 	streq	r0, [r1], -r0, lsl #4
 30c:	0000002f 	andeq	r0, r0, pc, lsr #32
 310:	f1050202 			; <UNDEFINED> instruction: 0xf1050202
 314:	02000000 	andeq	r0, r0, #0
 318:	00d00504 	sbcseq	r0, r0, r4, lsl #10
 31c:	08020000 	stmdaeq	r2, {}	; <UNPREDICTABLE>
 320:	0000cb05 	andeq	ip, r0, r5, lsl #22
 324:	08010200 	stmdaeq	r1, {r9}
 328:	0000002d 	andeq	r0, r0, sp, lsr #32
 32c:	3b070202 	blcc	1c0b3c <_bss_end+0x1b5b3c>
 330:	03000000 	movweq	r0, #0
 334:	0000010e 	andeq	r0, r0, lr, lsl #2
 338:	005a3402 	subseq	r3, sl, r2, lsl #8
 33c:	04020000 	streq	r0, [r2], #-0
 340:	00006f07 	andeq	r6, r0, r7, lsl #30
 344:	07080200 	streq	r0, [r8, -r0, lsl #4]
 348:	0000006a 	andeq	r0, r0, sl, rrx
 34c:	69050404 	stmdbvs	r5, {r2, sl}
 350:	0200746e 	andeq	r7, r0, #1845493760	; 0x6e000000
 354:	00740704 	rsbseq	r0, r4, r4, lsl #14
 358:	7e030000 	cdpvc	0, 0, cr0, cr3, cr0, {0}
 35c:	03000001 	movweq	r0, #1
 360:	00004f06 	andeq	r4, r0, r6, lsl #30
 364:	b1010500 	tstlt	r1, r0, lsl #10
 368:	01000001 	tsteq	r0, r1
 36c:	00de0126 	sbcseq	r0, lr, r6, lsr #2
 370:	82740000 	rsbshi	r0, r4, #0
 374:	83bc0000 			; <UNDEFINED> instruction: 0x83bc0000
 378:	01500000 	cmpeq	r0, r0
 37c:	de010000 	cdple	0, 0, cr0, cr1, cr0, {0}
 380:	06000000 	streq	r0, [r0], -r0
 384:	00000267 	andeq	r0, r0, r7, ror #4
 388:	00762601 	rsbseq	r2, r6, r1, lsl #12
 38c:	91020000 	mrsls	r0, (UNDEF: 2)
 390:	02110764 	andseq	r0, r1, #26214400	; 0x1900000
 394:	28010000 	stmdacs	r1, {}	; <UNPREDICTABLE>
 398:	000000de 	ldrdeq	r0, [r0], -lr
 39c:	07749102 	ldrbeq	r9, [r4, -r2, lsl #2]!
 3a0:	00000237 	andeq	r0, r0, r7, lsr r2
 3a4:	00683201 	rsbeq	r3, r8, r1, lsl #4
 3a8:	91020000 	mrsls	r0, (UNDEF: 2)
 3ac:	00000870 	andeq	r0, r0, r0, ror r8
 3b0:	f4070000 	vst4.8	{d0-d3}, [r7], r0
 3b4:	01000001 	tsteq	r0, r1
 3b8:	00007635 	andeq	r7, r0, r5, lsr r6
 3bc:	6c910200 	lfmvs	f0, 4, [r1], {0}
 3c0:	04090000 	streq	r0, [r9], #-0
 3c4:	00000076 	andeq	r0, r0, r6, ror r0
 3c8:	019d0105 	orrseq	r0, sp, r5, lsl #2
 3cc:	4a010000 	bmi	403d4 <_bss_end+0x353d4>
 3d0:	00006801 	andeq	r6, r0, r1, lsl #16
 3d4:	0083bc00 	addeq	fp, r3, r0, lsl #24
 3d8:	00841400 	addeq	r1, r4, r0, lsl #8
 3dc:	00017c00 	andeq	r7, r1, r0, lsl #24
 3e0:	01110100 	tsteq	r1, r0, lsl #2
 3e4:	04060000 	streq	r0, [r6], #-0
 3e8:	01000002 	tsteq	r0, r2
 3ec:	0000de4a 	andeq	sp, r0, sl, asr #28
 3f0:	74910200 	ldrvc	r0, [r1], #512	; 0x200
 3f4:	c0010a00 	andgt	r0, r1, r0, lsl #20
 3f8:	01000001 	tsteq	r0, r1
 3fc:	8414015b 	ldrhi	r0, [r4], #-347	; 0x15b
 400:	84940000 	ldrhi	r0, [r4], #0
 404:	01a80000 			; <UNDEFINED> instruction: 0x01a80000
 408:	3a010000 	bcc	40410 <_bss_end+0x35410>
 40c:	06000001 	streq	r0, [r0], -r1
 410:	00000204 	andeq	r0, r0, r4, lsl #4
 414:	00de5b01 	sbcseq	r5, lr, r1, lsl #22
 418:	91020000 	mrsls	r0, (UNDEF: 2)
 41c:	010a007c 	tsteq	sl, ip, ror r0
 420:	000001e7 	andeq	r0, r0, r7, ror #3
 424:	94016a01 	strls	r6, [r1], #-2561	; 0xa01
 428:	38000084 	stmdacc	r0, {r2, r7}
 42c:	c8000085 	stmdagt	r0, {r0, r2, r7}
 430:	01000001 	tsteq	r0, r1
 434:	00000171 	andeq	r0, r0, r1, ror r1
 438:	00020406 	andeq	r0, r2, r6, lsl #8
 43c:	de6a0100 	powlee	f0, f2, f0
 440:	02000000 	andeq	r0, r0, #0
 444:	67067c91 			; <UNDEFINED> instruction: 0x67067c91
 448:	01000002 	tsteq	r0, r2
 44c:	0000766a 	andeq	r7, r0, sl, ror #12
 450:	78910200 	ldmvc	r1, {r9}
 454:	23010a00 	movwcs	r0, #6656	; 0x1a00
 458:	01000002 	tsteq	r0, r2
 45c:	85380175 	ldrhi	r0, [r8, #-373]!	; 0x175
 460:	85740000 	ldrbhi	r0, [r4, #-0]!
 464:	01e80000 	mvneq	r0, r0
 468:	9a010000 	bls	40470 <_bss_end+0x35470>
 46c:	06000001 	streq	r0, [r0], -r1
 470:	00000204 	andeq	r0, r0, r4, lsl #4
 474:	00de7501 	sbcseq	r7, lr, r1, lsl #10
 478:	91020000 	mrsls	r0, (UNDEF: 2)
 47c:	410b007c 	tstmi	fp, ip, ror r0
 480:	ab000000 	blge	488 <_start-0x7b78>
 484:	0c000001 	stceq	0, cr0, [r0], {1}
 488:	000001ab 	andeq	r0, r0, fp, lsr #3
 48c:	020007ff 	andeq	r0, r0, #66846720	; 0x3fc0000
 490:	00c20704 	sbceq	r0, r2, r4, lsl #14
 494:	0c0d0000 	stceq	0, cr0, [sp], {-0}
 498:	01000002 	tsteq	r0, r2
 49c:	00019a18 	andeq	r9, r1, r8, lsl sl
 4a0:	03050100 	movweq	r0, #20736	; 0x5100
 4a4:	0000a0b0 	strheq	sl, [r0], -r0
 4a8:	00018f0d 	andeq	r8, r1, sp, lsl #30
 4ac:	681e0100 	ldmdavs	lr, {r8}
 4b0:	01000000 	mrseq	r0, (UNDEF: 0)
 4b4:	a0ac0305 	adcge	r0, ip, r5, lsl #6
 4b8:	56000000 	strpl	r0, [r0], -r0
 4bc:	02000001 	andeq	r0, r0, #1
 4c0:	00020b00 	andeq	r0, r2, r0, lsl #22
 4c4:	e5010400 	str	r0, [r1, #-1024]	; 0x400
 4c8:	01000000 	mrseq	r0, (UNDEF: 0)
 4cc:	0000024f 	andeq	r0, r0, pc, asr #4
 4d0:	00000081 	andeq	r0, r0, r1, lsl #1
 4d4:	00008574 	andeq	r8, r0, r4, ror r5
 4d8:	000085f8 	strdeq	r8, [r0], -r8	; <UNPREDICTABLE>
 4dc:	00000259 	andeq	r0, r0, r9, asr r2
 4e0:	2f060102 	svccs	0x00060102
 4e4:	02000000 	andeq	r0, r0, #0
 4e8:	00f10502 	rscseq	r0, r1, r2, lsl #10
 4ec:	04020000 	streq	r0, [r2], #-0
 4f0:	0000d005 	andeq	sp, r0, r5
 4f4:	05080200 	streq	r0, [r8, #-512]	; 0x200
 4f8:	000000cb 	andeq	r0, r0, fp, asr #1
 4fc:	2d080102 	stfcss	f0, [r8, #-8]
 500:	02000000 	andeq	r0, r0, #0
 504:	003b0702 	eorseq	r0, fp, r2, lsl #14
 508:	0e030000 	cdpeq	0, 0, cr0, cr3, cr0, {0}
 50c:	02000001 	andeq	r0, r0, #1
 510:	00005a34 	andeq	r5, r0, r4, lsr sl
 514:	07040200 	streq	r0, [r4, -r0, lsl #4]
 518:	0000006f 	andeq	r0, r0, pc, rrx
 51c:	6a070802 	bvs	1c252c <_bss_end+0x1b752c>
 520:	04000000 	streq	r0, [r0], #-0
 524:	6e690504 	cdpvs	5, 6, cr0, cr9, cr4, {0}
 528:	04020074 	streq	r0, [r2], #-116	; 0x74
 52c:	00007407 	andeq	r7, r0, r7, lsl #8
 530:	02480300 	subeq	r0, r8, #0
 534:	03030000 	movweq	r0, #12288	; 0x3000
 538:	00000081 	andeq	r0, r0, r1, lsl #1
 53c:	00870405 	addeq	r0, r7, r5, lsl #8
 540:	01060000 	mrseq	r0, (UNDEF: 6)
 544:	05033807 	streq	r3, [r3, #-2055]	; 0x807
 548:	000000bc 	strheq	r0, [r0], -ip
 54c:	00005a08 	andeq	r5, r0, r8, lsl #20
 550:	4f060300 	svcmi	0x00060300
 554:	02000000 	andeq	r0, r0, #0
 558:	23080023 	movwcs	r0, #32803	; 0x8023
 55c:	03000001 	movweq	r0, #1
 560:	00004f07 	andeq	r4, r0, r7, lsl #30
 564:	04230200 	strteq	r0, [r3], #-512	; 0x200
 568:	0000fb08 	andeq	pc, r0, r8, lsl #22
 56c:	bc080300 	stclt	3, cr0, [r8], {-0}
 570:	02000000 	andeq	r0, r0, #0
 574:	09000823 	stmdbeq	r0, {r0, r1, r5, fp}
 578:	0000004f 	andeq	r0, r0, pc, asr #32
 57c:	000000cc 	andeq	r0, r0, ip, asr #1
 580:	0000cc0a 	andeq	ip, r0, sl, lsl #24
 584:	02000b00 	andeq	r0, r0, #0
 588:	00c20704 	sbceq	r0, r2, r4, lsl #14
 58c:	27030000 	strcs	r0, [r3, -r0]
 590:	03000000 	movweq	r0, #0
 594:	00008909 	andeq	r8, r0, r9, lsl #18
 598:	3f010b00 	svccc	0x00010b00
 59c:	01000002 	tsteq	r0, r2
 5a0:	85740105 	ldrbhi	r0, [r4, #-261]!	; 0x105
 5a4:	85f80000 	ldrbhi	r0, [r8, #0]!
 5a8:	02080000 	andeq	r0, r8, #0
 5ac:	3b010000 	blcc	405b4 <_bss_end+0x355b4>
 5b0:	0c000001 	stceq	0, cr0, [r0], {1}
 5b4:	00787463 	rsbseq	r7, r8, r3, ror #8
 5b8:	013b0501 	teqeq	fp, r1, lsl #10
 5bc:	91020000 	mrsls	r0, (UNDEF: 2)
 5c0:	00660c6c 	rsbeq	r0, r6, ip, ror #24
 5c4:	00760501 	rsbseq	r0, r6, r1, lsl #10
 5c8:	91020000 	mrsls	r0, (UNDEF: 2)
 5cc:	02610d68 	rsbeq	r0, r1, #6656	; 0x1a00
 5d0:	05010000 	streq	r0, [r1, #-0]
 5d4:	0000006f 	andeq	r0, r0, pc, rrx
 5d8:	0e649102 	lgneqs	f1, f2
 5dc:	00000259 	andeq	r0, r0, r9, asr r2
 5e0:	01410a01 	cmpeq	r1, r1, lsl #20
 5e4:	91020000 	mrsls	r0, (UNDEF: 2)
 5e8:	006e0f70 	rsbeq	r0, lr, r0, ror pc
 5ec:	00680f01 	rsbeq	r0, r8, r1, lsl #30
 5f0:	91020000 	mrsls	r0, (UNDEF: 2)
 5f4:	04050074 	streq	r0, [r5], #-116	; 0x74
 5f8:	000000d3 	ldrdeq	r0, [r0], -r3
 5fc:	004f0405 	subeq	r0, pc, r5, lsl #8
 600:	d9100000 	ldmdble	r0, {}	; <UNPREDICTABLE>
 604:	03000000 	movweq	r0, #0
 608:	00013b0b 	andeq	r3, r1, fp, lsl #22
 60c:	03050100 	movweq	r0, #20736	; 0x5100
 610:	0000a070 	andeq	sl, r0, r0, ror r0
 614:	00010900 	andeq	r0, r1, r0, lsl #18
 618:	e7000200 	str	r0, [r0, -r0, lsl #4]
 61c:	04000002 	streq	r0, [r0], #-2
 620:	0000e501 	andeq	lr, r0, r1, lsl #10
 624:	026c0100 	rsbeq	r0, ip, #0
 628:	00810000 	addeq	r0, r1, r0
 62c:	85f80000 	ldrbhi	r0, [r8, #0]!
 630:	87f80000 	ldrbhi	r0, [r8, r0]!
 634:	03050000 	movweq	r0, #20480	; 0x5000
 638:	01020000 	mrseq	r0, (UNDEF: 2)
 63c:	00002f06 	andeq	r2, r0, r6, lsl #30
 640:	05020200 	streq	r0, [r2, #-512]	; 0x200
 644:	000000f1 	strdeq	r0, [r0], -r1
 648:	d0050402 	andle	r0, r5, r2, lsl #8
 64c:	02000000 	andeq	r0, r0, #0
 650:	00cb0508 	sbceq	r0, fp, r8, lsl #10
 654:	01020000 	mrseq	r0, (UNDEF: 2)
 658:	00002d08 	andeq	r2, r0, r8, lsl #26
 65c:	07020200 	streq	r0, [r2, -r0, lsl #4]
 660:	0000003b 	andeq	r0, r0, fp, lsr r0
 664:	00010e03 	andeq	r0, r1, r3, lsl #28
 668:	5a340300 	bpl	d01270 <_bss_end+0xcf6270>
 66c:	02000000 	andeq	r0, r0, #0
 670:	006f0704 	rsbeq	r0, pc, r4, lsl #14
 674:	08020000 	stmdaeq	r2, {}	; <UNPREDICTABLE>
 678:	00006a07 	andeq	r6, r0, r7, lsl #20
 67c:	05040400 	streq	r0, [r4, #-1024]	; 0x400
 680:	00746e69 	rsbseq	r6, r4, r9, ror #28
 684:	74070402 	strvc	r0, [r7], #-1026	; 0x402
 688:	05000000 	streq	r0, [r0, #-0]
 68c:	a9050238 	stmdbge	r5, {r3, r4, r5, r9}
 690:	06000000 	streq	r0, [r0], -r0
 694:	0000005a 	andeq	r0, r0, sl, asr r0
 698:	004f0602 	subeq	r0, pc, r2, lsl #12
 69c:	23020000 	movwcs	r0, #8192	; 0x2000
 6a0:	01230600 	teqeq	r3, r0, lsl #12
 6a4:	07020000 	streq	r0, [r2, -r0]
 6a8:	0000004f 	andeq	r0, r0, pc, asr #32
 6ac:	06042302 	streq	r2, [r4], -r2, lsl #6
 6b0:	000000fb 	strdeq	r0, [r0], -fp
 6b4:	00a90802 	adceq	r0, r9, r2, lsl #16
 6b8:	23020000 	movwcs	r0, #8192	; 0x2000
 6bc:	4f070008 	svcmi	0x00070008
 6c0:	b9000000 	stmdblt	r0, {}	; <UNPREDICTABLE>
 6c4:	08000000 	stmdaeq	r0, {}	; <UNPREDICTABLE>
 6c8:	000000b9 	strheq	r0, [r0], -r9
 6cc:	0402000b 	streq	r0, [r2], #-11
 6d0:	0000c207 	andeq	ip, r0, r7, lsl #4
 6d4:	00270300 	eoreq	r0, r7, r0, lsl #6
 6d8:	09020000 	stmdbeq	r2, {}	; <UNPREDICTABLE>
 6dc:	00000076 	andeq	r0, r0, r6, ror r0
 6e0:	02790109 	rsbseq	r0, r9, #1073741826	; 0x40000002
 6e4:	03010000 	movweq	r0, #4096	; 0x1000
 6e8:	0085f801 	addeq	pc, r5, r1, lsl #16
 6ec:	0087f800 	addeq	pc, r7, r0, lsl #16
 6f0:	00023400 	andeq	r3, r2, r0, lsl #8
 6f4:	00f40100 	rscseq	r0, r4, r0, lsl #2
 6f8:	630a0000 	movwvs	r0, #40960	; 0xa000
 6fc:	01007874 	tsteq	r0, r4, ror r8
 700:	0000f403 	andeq	pc, r0, r3, lsl #8
 704:	7c910200 	lfmvc	f0, 4, [r1], {0}
 708:	c0040b00 	andgt	r0, r4, r0, lsl #22
 70c:	0c000000 	stceq	0, cr0, [r0], {-0}
 710:	000000d9 	ldrdeq	r0, [r0], -r9
 714:	00f40b02 	rscseq	r0, r4, r2, lsl #22
 718:	05010000 	streq	r0, [r1, #-0]
 71c:	00a07003 	adceq	r7, r0, r3
	...

Disassembly of section .debug_abbrev:

00000000 <.debug_abbrev>:
   0:	10001101 	andne	r1, r0, r1, lsl #2
   4:	12011106 	andne	r1, r1, #-2147483647	; 0x80000001
   8:	1b080301 	blne	200c14 <_bss_end+0x1f5c14>
   c:	13082508 	movwne	r2, #34056	; 0x8508
  10:	00000005 	andeq	r0, r0, r5
  14:	25011101 	strcs	r1, [r1, #-257]	; 0x101
  18:	030b130e 	movweq	r1, #45838	; 0xb30e
  1c:	110e1b0e 	tstne	lr, lr, lsl #22
  20:	10011201 	andne	r1, r1, r1, lsl #4
  24:	02000006 	andeq	r0, r0, #6
  28:	0b0b0024 	bleq	2c00c0 <_bss_end+0x2b50c0>
  2c:	0e030b3e 	vmoveq.16	d3[0], r0
  30:	16030000 	strne	r0, [r3], -r0
  34:	3a0e0300 	bcc	380c3c <_bss_end+0x375c3c>
  38:	490b3b0b 	stmdbmi	fp, {r0, r1, r3, r8, r9, fp, ip, sp}
  3c:	04000013 	streq	r0, [r0], #-19
  40:	0b0b0024 	bleq	2c00d8 <_bss_end+0x2b50d8>
  44:	08030b3e 	stmdaeq	r3, {r1, r2, r3, r4, r5, r8, r9, fp}
  48:	13050000 	movwne	r0, #20480	; 0x5000
  4c:	3a0b0b01 	bcc	2c2c58 <_bss_end+0x2b7c58>
  50:	010b3b0b 	tsteq	fp, fp, lsl #22
  54:	06000013 			; <UNDEFINED> instruction: 0x06000013
  58:	0e03000d 	cdpeq	0, 0, cr0, cr3, cr13, {0}
  5c:	0b3b0b3a 	bleq	ec2d4c <_bss_end+0xeb7d4c>
  60:	0a381349 	beq	e04d8c <_bss_end+0xdf9d8c>
  64:	01070000 	mrseq	r0, (UNDEF: 7)
  68:	01134901 	tsteq	r3, r1, lsl #18
  6c:	08000013 	stmdaeq	r0, {r0, r1, r4}
  70:	13490021 	movtne	r0, #36897	; 0x9021
  74:	00000b2f 	andeq	r0, r0, pc, lsr #22
  78:	3f012e09 	svccc	0x00012e09
  7c:	3a0e030c 	bcc	380cb4 <_bss_end+0x375cb4>
  80:	110b3b0b 	tstne	fp, fp, lsl #22
  84:	40011201 	andmi	r1, r1, r1, lsl #4
  88:	0c429606 	mcrreq	6, 0, r9, r2, cr6
  8c:	00001301 	andeq	r1, r0, r1, lsl #6
  90:	0300340a 	movweq	r3, #1034	; 0x40a
  94:	3b0b3a0e 	blcc	2ce8d4 <_bss_end+0x2c38d4>
  98:	0213490b 	andseq	r4, r3, #180224	; 0x2c000
  9c:	0b00000a 	bleq	cc <_start-0x7f34>
  a0:	0c3f002e 	ldceq	0, cr0, [pc], #-184	; fffffff0 <_bss_end+0xffff4ff0>
  a4:	0b3a0e03 	bleq	e838b8 <_bss_end+0xe788b8>
  a8:	0c270b3b 	stceq	11, cr0, [r7], #-236	; 0xffffff14
  ac:	01111349 	tsteq	r1, r9, asr #6
  b0:	06400112 			; <UNDEFINED> instruction: 0x06400112
  b4:	000c4296 	muleq	ip, r6, r2
  b8:	00340c00 	eorseq	r0, r4, r0, lsl #24
  bc:	0b3a0e03 	bleq	e838d0 <_bss_end+0xe788d0>
  c0:	13490b3b 	movtne	r0, #39739	; 0x9b3b
  c4:	0a020c3f 	beq	831c8 <_bss_end+0x781c8>
  c8:	0f0d0000 	svceq	0x000d0000
  cc:	490b0b00 	stmdbmi	fp, {r8, r9, fp}
  d0:	0e000013 	mcreq	0, 0, r0, cr0, cr3, {0}
  d4:	13490026 	movtne	r0, #36902	; 0x9026
  d8:	01000000 	mrseq	r0, (UNDEF: 0)
  dc:	0e250111 	mcreq	1, 1, r0, cr5, cr1, {0}
  e0:	0e030b13 	vmoveq.32	d3[0], r0
  e4:	01110e1b 	tsteq	r1, fp, lsl lr
  e8:	06100112 			; <UNDEFINED> instruction: 0x06100112
  ec:	2e020000 	cdpcs	0, 0, cr0, cr2, cr0, {0}
  f0:	030c3f00 	movweq	r3, #52992	; 0xcf00
  f4:	3b0b3a0e 	blcc	2ce934 <_bss_end+0x2c3934>
  f8:	1201110b 	andne	r1, r1, #-1073741822	; 0xc0000002
  fc:	96064001 	strls	r4, [r6], -r1
 100:	00000c42 	andeq	r0, r0, r2, asr #24
 104:	3f012e03 	svccc	0x00012e03
 108:	3a0e030c 	bcc	380d40 <_bss_end+0x375d40>
 10c:	110b3b0b 	tstne	fp, fp, lsl #22
 110:	40011201 	andmi	r1, r1, r1, lsl #4
 114:	0c429606 	mcrreq	6, 0, r9, r2, cr6
 118:	00001301 	andeq	r1, r0, r1, lsl #6
 11c:	03003404 	movweq	r3, #1028	; 0x404
 120:	3b0b3a08 	blcc	2ce948 <_bss_end+0x2c3948>
 124:	0213490b 	andseq	r4, r3, #180224	; 0x2c000
 128:	0500000a 	streq	r0, [r0, #-10]
 12c:	0b0b0024 	bleq	2c01c4 <_bss_end+0x2b51c4>
 130:	0e030b3e 	vmoveq.16	d3[0], r0
 134:	2e060000 	cdpcs	0, 0, cr0, cr6, cr0, {0}
 138:	030c3f01 	movweq	r3, #52993	; 0xcf01
 13c:	3b0b3a0e 	blcc	2ce97c <_bss_end+0x2c397c>
 140:	1201110b 	andne	r1, r1, #-1073741822	; 0xc0000002
 144:	96064001 	strls	r4, [r6], -r1
 148:	00000c42 	andeq	r0, r0, r2, asr #24
 14c:	01110100 	tsteq	r1, r0, lsl #2
 150:	0b130e25 	bleq	4c39ec <_bss_end+0x4b89ec>
 154:	0e1b0e03 	cdpeq	14, 1, cr0, cr11, cr3, {0}
 158:	01120111 	tsteq	r2, r1, lsl r1
 15c:	00000610 	andeq	r0, r0, r0, lsl r6
 160:	0b002402 	bleq	9170 <_rodata_start+0x170>
 164:	030b3e0b 	movweq	r3, #48651	; 0xbe0b
 168:	0300000e 	movweq	r0, #14
 16c:	0e030016 	mcreq	0, 0, r0, cr3, cr6, {0}
 170:	0b3b0b3a 	bleq	ec2e60 <_bss_end+0xeb7e60>
 174:	00001349 	andeq	r1, r0, r9, asr #6
 178:	0b002404 	bleq	9190 <_rodata_start+0x190>
 17c:	030b3e0b 	movweq	r3, #48651	; 0xbe0b
 180:	05000008 	streq	r0, [r0, #-8]
 184:	0c3f012e 	ldfeqs	f0, [pc], #-184	; d4 <_start-0x7f2c>
 188:	0b3a0e03 	bleq	e8399c <_bss_end+0xe7899c>
 18c:	0c270b3b 	stceq	11, cr0, [r7], #-236	; 0xffffff14
 190:	01111349 	tsteq	r1, r9, asr #6
 194:	06400112 			; <UNDEFINED> instruction: 0x06400112
 198:	010c4296 			; <UNDEFINED> instruction: 0x010c4296
 19c:	06000013 			; <UNDEFINED> instruction: 0x06000013
 1a0:	0e030005 	cdpeq	0, 0, cr0, cr3, cr5, {0}
 1a4:	0b3b0b3a 	bleq	ec2e94 <_bss_end+0xeb7e94>
 1a8:	0a021349 	beq	84ed4 <_bss_end+0x79ed4>
 1ac:	34070000 	strcc	r0, [r7], #-0
 1b0:	3a0e0300 	bcc	380db8 <_bss_end+0x375db8>
 1b4:	490b3b0b 	stmdbmi	fp, {r0, r1, r3, r8, r9, fp, ip, sp}
 1b8:	000a0213 	andeq	r0, sl, r3, lsl r2
 1bc:	010b0800 	tsteq	fp, r0, lsl #16
 1c0:	00000655 	andeq	r0, r0, r5, asr r6
 1c4:	0b000f09 	bleq	3df0 <_start-0x4210>
 1c8:	0013490b 	andseq	r4, r3, fp, lsl #18
 1cc:	012e0a00 	teqeq	lr, r0, lsl #20
 1d0:	0e030c3f 	mcreq	12, 0, r0, cr3, cr15, {1}
 1d4:	0b3b0b3a 	bleq	ec2ec4 <_bss_end+0xeb7ec4>
 1d8:	01110c27 	tsteq	r1, r7, lsr #24
 1dc:	06400112 			; <UNDEFINED> instruction: 0x06400112
 1e0:	010c4297 			; <UNDEFINED> instruction: 0x010c4297
 1e4:	0b000013 	bleq	238 <_start-0x7dc8>
 1e8:	13490101 	movtne	r0, #37121	; 0x9101
 1ec:	00001301 	andeq	r1, r0, r1, lsl #6
 1f0:	4900210c 	stmdbmi	r0, {r2, r3, r8, sp}
 1f4:	00052f13 	andeq	r2, r5, r3, lsl pc
 1f8:	00340d00 	eorseq	r0, r4, r0, lsl #26
 1fc:	0b3a0e03 	bleq	e83a10 <_bss_end+0xe78a10>
 200:	13490b3b 	movtne	r0, #39739	; 0x9b3b
 204:	0a020c3f 	beq	83308 <_bss_end+0x78308>
 208:	01000000 	mrseq	r0, (UNDEF: 0)
 20c:	0e250111 	mcreq	1, 1, r0, cr5, cr1, {0}
 210:	0e030b13 	vmoveq.32	d3[0], r0
 214:	01110e1b 	tsteq	r1, fp, lsl lr
 218:	06100112 			; <UNDEFINED> instruction: 0x06100112
 21c:	24020000 	strcs	r0, [r2], #-0
 220:	3e0b0b00 	vmlacc.f64	d0, d11, d0
 224:	000e030b 	andeq	r0, lr, fp, lsl #6
 228:	00160300 	andseq	r0, r6, r0, lsl #6
 22c:	0b3a0e03 	bleq	e83a40 <_bss_end+0xe78a40>
 230:	13490b3b 	movtne	r0, #39739	; 0x9b3b
 234:	24040000 	strcs	r0, [r4], #-0
 238:	3e0b0b00 	vmlacc.f64	d0, d11, d0
 23c:	0008030b 	andeq	r0, r8, fp, lsl #6
 240:	000f0500 	andeq	r0, pc, r0, lsl #10
 244:	13490b0b 	movtne	r0, #39691	; 0x9b0b
 248:	15060000 	strne	r0, [r6, #-0]
 24c:	000c2700 	andeq	r2, ip, r0, lsl #14
 250:	01130700 	tsteq	r3, r0, lsl #14
 254:	0b3a0b0b 	bleq	e82e88 <_bss_end+0xe77e88>
 258:	13010b3b 	movwne	r0, #6971	; 0x1b3b
 25c:	0d080000 	stceq	0, cr0, [r8, #-0]
 260:	3a0e0300 	bcc	380e68 <_bss_end+0x375e68>
 264:	490b3b0b 	stmdbmi	fp, {r0, r1, r3, r8, r9, fp, ip, sp}
 268:	000a3813 	andeq	r3, sl, r3, lsl r8
 26c:	01010900 	tsteq	r1, r0, lsl #18
 270:	13011349 	movwne	r1, #4937	; 0x1349
 274:	210a0000 	mrscs	r0, (UNDEF: 10)
 278:	2f134900 	svccs	0x00134900
 27c:	0b00000b 	bleq	2b0 <_start-0x7d50>
 280:	0c3f012e 	ldfeqs	f0, [pc], #-184	; 1d0 <_start-0x7e30>
 284:	0b3a0e03 	bleq	e83a98 <_bss_end+0xe78a98>
 288:	0c270b3b 	stceq	11, cr0, [r7], #-236	; 0xffffff14
 28c:	01120111 	tsteq	r2, r1, lsl r1
 290:	42960640 	addsmi	r0, r6, #67108864	; 0x4000000
 294:	0013010c 	andseq	r0, r3, ip, lsl #2
 298:	00050c00 	andeq	r0, r5, r0, lsl #24
 29c:	0b3a0803 	bleq	e822b0 <_bss_end+0xe772b0>
 2a0:	13490b3b 	movtne	r0, #39739	; 0x9b3b
 2a4:	00000a02 	andeq	r0, r0, r2, lsl #20
 2a8:	0300050d 	movweq	r0, #1293	; 0x50d
 2ac:	3b0b3a0e 	blcc	2ceaec <_bss_end+0x2c3aec>
 2b0:	0213490b 	andseq	r4, r3, #180224	; 0x2c000
 2b4:	0e00000a 	cdpeq	0, 0, cr0, cr0, cr10, {0}
 2b8:	0e030034 	mcreq	0, 0, r0, cr3, cr4, {1}
 2bc:	0b3b0b3a 	bleq	ec2fac <_bss_end+0xeb7fac>
 2c0:	0a021349 	beq	84fec <_bss_end+0x79fec>
 2c4:	340f0000 	strcc	r0, [pc], #-0	; 2cc <_start-0x7d34>
 2c8:	3a080300 	bcc	200ed0 <_bss_end+0x1f5ed0>
 2cc:	490b3b0b 	stmdbmi	fp, {r0, r1, r3, r8, r9, fp, ip, sp}
 2d0:	000a0213 	andeq	r0, sl, r3, lsl r2
 2d4:	00341000 	eorseq	r1, r4, r0
 2d8:	0b3a0e03 	bleq	e83aec <_bss_end+0xe78aec>
 2dc:	13490b3b 	movtne	r0, #39739	; 0x9b3b
 2e0:	0a020c3f 	beq	833e4 <_bss_end+0x783e4>
 2e4:	01000000 	mrseq	r0, (UNDEF: 0)
 2e8:	0e250111 	mcreq	1, 1, r0, cr5, cr1, {0}
 2ec:	0e030b13 	vmoveq.32	d3[0], r0
 2f0:	01110e1b 	tsteq	r1, fp, lsl lr
 2f4:	06100112 			; <UNDEFINED> instruction: 0x06100112
 2f8:	24020000 	strcs	r0, [r2], #-0
 2fc:	3e0b0b00 	vmlacc.f64	d0, d11, d0
 300:	000e030b 	andeq	r0, lr, fp, lsl #6
 304:	00160300 	andseq	r0, r6, r0, lsl #6
 308:	0b3a0e03 	bleq	e83b1c <_bss_end+0xe78b1c>
 30c:	13490b3b 	movtne	r0, #39739	; 0x9b3b
 310:	24040000 	strcs	r0, [r4], #-0
 314:	3e0b0b00 	vmlacc.f64	d0, d11, d0
 318:	0008030b 	andeq	r0, r8, fp, lsl #6
 31c:	01130500 	tsteq	r3, r0, lsl #10
 320:	0b3a0b0b 	bleq	e82f54 <_bss_end+0xe77f54>
 324:	13010b3b 	movwne	r0, #6971	; 0x1b3b
 328:	0d060000 	stceq	0, cr0, [r6, #-0]
 32c:	3a0e0300 	bcc	380f34 <_bss_end+0x375f34>
 330:	490b3b0b 	stmdbmi	fp, {r0, r1, r3, r8, r9, fp, ip, sp}
 334:	000a3813 	andeq	r3, sl, r3, lsl r8
 338:	01010700 	tsteq	r1, r0, lsl #14
 33c:	13011349 	movwne	r1, #4937	; 0x1349
 340:	21080000 	mrscs	r0, (UNDEF: 8)
 344:	2f134900 	svccs	0x00134900
 348:	0900000b 	stmdbeq	r0, {r0, r1, r3}
 34c:	0c3f012e 	ldfeqs	f0, [pc], #-184	; 29c <_start-0x7d64>
 350:	0b3a0e03 	bleq	e83b64 <_bss_end+0xe78b64>
 354:	0c270b3b 	stceq	11, cr0, [r7], #-236	; 0xffffff14
 358:	01120111 	tsteq	r2, r1, lsl r1
 35c:	42970640 	addsmi	r0, r7, #67108864	; 0x4000000
 360:	0013010c 	andseq	r0, r3, ip, lsl #2
 364:	00050a00 	andeq	r0, r5, r0, lsl #20
 368:	0b3a0803 	bleq	e8237c <_bss_end+0xe7737c>
 36c:	13490b3b 	movtne	r0, #39739	; 0x9b3b
 370:	00000a02 	andeq	r0, r0, r2, lsl #20
 374:	0b000f0b 	bleq	3fa8 <_start-0x4058>
 378:	0013490b 	andseq	r4, r3, fp, lsl #18
 37c:	00340c00 	eorseq	r0, r4, r0, lsl #24
 380:	0b3a0e03 	bleq	e83b94 <_bss_end+0xe78b94>
 384:	13490b3b 	movtne	r0, #39739	; 0x9b3b
 388:	0a020c3f 	beq	8348c <_bss_end+0x7848c>
 38c:	Address 0x000000000000038c is out of bounds.


Disassembly of section .debug_aranges:

00000000 <.debug_aranges>:
   0:	0000001c 	andeq	r0, r0, ip, lsl r0
   4:	00000002 	andeq	r0, r0, r2
   8:	00040000 	andeq	r0, r4, r0
   c:	00000000 	andeq	r0, r0, r0
  10:	00008000 	andeq	r8, r0, r0
  14:	00000078 	andeq	r0, r0, r8, ror r0
	...
  20:	0000001c 	andeq	r0, r0, ip, lsl r0
  24:	00710002 	rsbseq	r0, r1, r2
  28:	00040000 	andeq	r0, r4, r0
  2c:	00000000 	andeq	r0, r0, r0
  30:	00008078 	andeq	r8, r0, r8, ror r0
  34:	000000c8 	andeq	r0, r0, r8, asr #1
	...
  40:	0000001c 	andeq	r0, r0, ip, lsl r0
  44:	020c0002 	andeq	r0, ip, #2
  48:	00040000 	andeq	r0, r4, r0
  4c:	00000000 	andeq	r0, r0, r0
  50:	00008140 	andeq	r8, r0, r0, asr #2
  54:	00000134 	andeq	r0, r0, r4, lsr r1
	...
  60:	0000001c 	andeq	r0, r0, ip, lsl r0
  64:	02e40002 	rsceq	r0, r4, #2
  68:	00040000 	andeq	r0, r4, r0
  6c:	00000000 	andeq	r0, r0, r0
  70:	00008274 	andeq	r8, r0, r4, ror r2
  74:	00000300 	andeq	r0, r0, r0, lsl #6
	...
  80:	0000001c 	andeq	r0, r0, ip, lsl r0
  84:	04bb0002 	ldrteq	r0, [fp], #2
  88:	00040000 	andeq	r0, r4, r0
  8c:	00000000 	andeq	r0, r0, r0
  90:	00008574 	andeq	r8, r0, r4, ror r5
  94:	00000084 	andeq	r0, r0, r4, lsl #1
	...
  a0:	0000001c 	andeq	r0, r0, ip, lsl r0
  a4:	06150002 	ldreq	r0, [r5], -r2
  a8:	00040000 	andeq	r0, r4, r0
  ac:	00000000 	andeq	r0, r0, r0
  b0:	000085f8 	strdeq	r8, [r0], -r8	; <UNPREDICTABLE>
  b4:	00000200 	andeq	r0, r0, r0, lsl #4
	...

Disassembly of section .debug_loc:

00000000 <.debug_loc>:
   0:	00000000 	andeq	r0, r0, r0
   4:	00000004 	andeq	r0, r0, r4
   8:	007d0002 	rsbseq	r0, sp, r2
   c:	00000004 	andeq	r0, r0, r4
  10:	00000008 	andeq	r0, r0, r8
  14:	047d0002 	ldrbteq	r0, [sp], #-2
  18:	00000008 	andeq	r0, r0, r8
  1c:	0000002c 	andeq	r0, r0, ip, lsr #32
  20:	107d0002 	rsbsne	r0, sp, r2
	...
  2c:	0000002c 	andeq	r0, r0, ip, lsr #32
  30:	00000030 	andeq	r0, r0, r0, lsr r0
  34:	007d0002 	rsbseq	r0, sp, r2
  38:	00000030 	andeq	r0, r0, r0, lsr r0
  3c:	00000034 	andeq	r0, r0, r4, lsr r0
  40:	047d0002 	ldrbteq	r0, [sp], #-2
  44:	00000034 	andeq	r0, r0, r4, lsr r0
  48:	00000058 	andeq	r0, r0, r8, asr r0
  4c:	107d0002 	rsbsne	r0, sp, r2
	...
  58:	00000058 	andeq	r0, r0, r8, asr r0
  5c:	0000005c 	andeq	r0, r0, ip, asr r0
  60:	007d0002 	rsbseq	r0, sp, r2
  64:	0000005c 	andeq	r0, r0, ip, asr r0
  68:	000000c8 	andeq	r0, r0, r8, asr #1
  6c:	087d0002 	ldmdaeq	sp!, {r1}^
	...
  7c:	00000004 	andeq	r0, r0, r4
  80:	007d0002 	rsbseq	r0, sp, r2
  84:	00000004 	andeq	r0, r0, r4
  88:	00000018 	andeq	r0, r0, r8, lsl r0
  8c:	087d0002 	ldmdaeq	sp!, {r1}^
	...
  98:	00000018 	andeq	r0, r0, r8, lsl r0
  9c:	0000001c 	andeq	r0, r0, ip, lsl r0
  a0:	007d0002 	rsbseq	r0, sp, r2
  a4:	0000001c 	andeq	r0, r0, ip, lsl r0
  a8:	00000030 	andeq	r0, r0, r0, lsr r0
  ac:	087d0002 	ldmdaeq	sp!, {r1}^
	...
  b8:	00000030 	andeq	r0, r0, r0, lsr r0
  bc:	00000034 	andeq	r0, r0, r4, lsr r0
  c0:	007d0002 	rsbseq	r0, sp, r2
  c4:	00000034 	andeq	r0, r0, r4, lsr r0
  c8:	00000038 	andeq	r0, r0, r8, lsr r0
  cc:	047d0002 	ldrbteq	r0, [sp], #-2
  d0:	00000038 	andeq	r0, r0, r8, lsr r0
  d4:	00000070 	andeq	r0, r0, r0, ror r0
  d8:	107d0002 	rsbsne	r0, sp, r2
	...
  e4:	00000070 	andeq	r0, r0, r0, ror r0
  e8:	00000074 	andeq	r0, r0, r4, ror r0
  ec:	007d0002 	rsbseq	r0, sp, r2
  f0:	00000074 	andeq	r0, r0, r4, ror r0
  f4:	00000088 	andeq	r0, r0, r8, lsl #1
  f8:	087d0002 	ldmdaeq	sp!, {r1}^
	...
 104:	00000088 	andeq	r0, r0, r8, lsl #1
 108:	0000008c 	andeq	r0, r0, ip, lsl #1
 10c:	007d0002 	rsbseq	r0, sp, r2
 110:	0000008c 	andeq	r0, r0, ip, lsl #1
 114:	000000a0 	andeq	r0, r0, r0, lsr #1
 118:	087d0002 	ldmdaeq	sp!, {r1}^
	...
 124:	000000a0 	andeq	r0, r0, r0, lsr #1
 128:	000000a4 	andeq	r0, r0, r4, lsr #1
 12c:	007d0002 	rsbseq	r0, sp, r2
 130:	000000a4 	andeq	r0, r0, r4, lsr #1
 134:	000000a8 	andeq	r0, r0, r8, lsr #1
 138:	047d0002 	ldrbteq	r0, [sp], #-2
 13c:	000000a8 	andeq	r0, r0, r8, lsr #1
 140:	00000134 	andeq	r0, r0, r4, lsr r1
 144:	107d0002 	rsbsne	r0, sp, r2
	...
 154:	00000004 	andeq	r0, r0, r4
 158:	007d0002 	rsbseq	r0, sp, r2
 15c:	00000004 	andeq	r0, r0, r4
 160:	00000008 	andeq	r0, r0, r8
 164:	047d0002 	ldrbteq	r0, [sp], #-2
 168:	00000008 	andeq	r0, r0, r8
 16c:	00000148 	andeq	r0, r0, r8, asr #2
 170:	207d0002 	rsbscs	r0, sp, r2
	...
 17c:	00000148 	andeq	r0, r0, r8, asr #2
 180:	0000014c 	andeq	r0, r0, ip, asr #2
 184:	007d0002 	rsbseq	r0, sp, r2
 188:	0000014c 	andeq	r0, r0, ip, asr #2
 18c:	00000150 	andeq	r0, r0, r0, asr r1
 190:	047d0002 	ldrbteq	r0, [sp], #-2
 194:	00000150 	andeq	r0, r0, r0, asr r1
 198:	000001a0 	andeq	r0, r0, r0, lsr #3
 19c:	107d0002 	rsbsne	r0, sp, r2
	...
 1a8:	000001a0 	andeq	r0, r0, r0, lsr #3
 1ac:	000001a4 	andeq	r0, r0, r4, lsr #3
 1b0:	007d0002 	rsbseq	r0, sp, r2
 1b4:	000001a4 	andeq	r0, r0, r4, lsr #3
 1b8:	00000220 	andeq	r0, r0, r0, lsr #4
 1bc:	087d0002 	ldmdaeq	sp!, {r1}^
	...
 1c8:	00000220 	andeq	r0, r0, r0, lsr #4
 1cc:	00000224 	andeq	r0, r0, r4, lsr #4
 1d0:	007d0002 	rsbseq	r0, sp, r2
 1d4:	00000224 	andeq	r0, r0, r4, lsr #4
 1d8:	000002c4 	andeq	r0, r0, r4, asr #5
 1dc:	087d0002 	ldmdaeq	sp!, {r1}^
	...
 1e8:	000002c4 	andeq	r0, r0, r4, asr #5
 1ec:	000002c8 	andeq	r0, r0, r8, asr #5
 1f0:	007d0002 	rsbseq	r0, sp, r2
 1f4:	000002c8 	andeq	r0, r0, r8, asr #5
 1f8:	00000300 	andeq	r0, r0, r0, lsl #6
 1fc:	087d0002 	ldmdaeq	sp!, {r1}^
	...
 20c:	00000004 	andeq	r0, r0, r4
 210:	007d0002 	rsbseq	r0, sp, r2
 214:	00000004 	andeq	r0, r0, r4
 218:	00000008 	andeq	r0, r0, r8
 21c:	047d0002 	ldrbteq	r0, [sp], #-2
 220:	00000008 	andeq	r0, r0, r8
 224:	00000084 	andeq	r0, r0, r4, lsl #1
 228:	207d0002 	rsbscs	r0, sp, r2
	...
 238:	00000004 	andeq	r0, r0, r4
 23c:	007d0002 	rsbseq	r0, sp, r2
 240:	00000004 	andeq	r0, r0, r4
 244:	00000200 	andeq	r0, r0, r0, lsl #4
 248:	087d0002 	ldmdaeq	sp!, {r1}^
	...

Disassembly of section .debug_str:

00000000 <.debug_str>:
   0:	41747063 	cmnmi	r4, r3, rrx
   4:	74706300 	ldrbtvc	r6, [r0], #-768	; 0x300
   8:	54530042 	ldrbpl	r0, [r3], #-66	; 0x42
   c:	5f4b4341 	svcpl	0x004b4341
  10:	455a4953 	ldrbmi	r4, [sl, #-2387]	; 0x953
  14:	746f6e00 	strbtvc	r6, [pc], #-3584	; 1c <_start-0x7fe4>
  18:	6e69616d 	powvsez	f6, f1, #5.0
  1c:	6e00632e 	cdpvs	3, 0, cr6, cr0, cr14, {1}
  20:	616d746f 	cmnvs	sp, pc, ror #8
  24:	63006e69 	movwvs	r6, #3689	; 0xe69
  28:	735f7874 	cmpvc	pc, #7602176	; 0x740000
  2c:	736e7500 	cmnvc	lr, #0
  30:	656e6769 	strbvs	r6, [lr, #-1897]!	; 0x769
  34:	68632064 	stmdavs	r3!, {r2, r5, r6, sp}^
  38:	73007261 	movwvc	r7, #609	; 0x261
  3c:	74726f68 	ldrbtvc	r6, [r2], #-3944	; 0xf68
  40:	736e7520 	cmnvc	lr, #134217728	; 0x8000000
  44:	656e6769 	strbvs	r6, [lr, #-1897]!	; 0x769
  48:	6e692064 	cdpvs	0, 6, cr2, cr9, cr4, {3}
  4c:	75660074 	strbvc	r0, [r6, #-116]!	; 0x74
  50:	0041636e 	subeq	r6, r1, lr, ror #6
  54:	636e7566 	cmnvs	lr, #427819008	; 0x19800000
  58:	64610042 	strbtvs	r0, [r1], #-66	; 0x42
  5c:	6e695f72 	mcrvs	15, 3, r5, cr9, cr2, {3}
  60:	75727473 	ldrbvc	r7, [r2, #-1139]!	; 0x473
  64:	6f697463 	svcvs	0x00697463
  68:	6f6c006e 	svcvs	0x006c006e
  6c:	6c20676e 	stcvs	7, cr6, [r0], #-440	; 0xfffffe48
  70:	20676e6f 	rsbcs	r6, r7, pc, ror #28
  74:	69736e75 	ldmdbvs	r3!, {r0, r2, r4, r5, r6, r9, sl, fp, sp, lr}^
  78:	64656e67 	strbtvs	r6, [r5], #-3687	; 0xe67
  7c:	746e6920 	strbtvc	r6, [lr], #-2336	; 0x920
  80:	6f682f00 	svcvs	0x00682f00
  84:	702f656d 	eorvc	r6, pc, sp, ror #10
  88:	7261646d 	rsbvc	r6, r1, #1828716544	; 0x6d000000
  8c:	2f737574 	svccs	0x00737574
  90:	75636f44 	strbvc	r6, [r3, #-3908]!	; 0xf44
  94:	746e656d 	strbtvc	r6, [lr], #-1389	; 0x56d
  98:	61722f73 	cmnvs	r2, r3, ror pc
  9c:	72656273 	rsbvc	r6, r5, #805306375	; 0x30000007
  a0:	705f7972 	subsvc	r7, pc, r2, ror r9	; <UNPREDICTABLE>
  a4:	726f2f69 	rsbvc	r2, pc, #420	; 0x1a4
  a8:	6e6e6f64 	cdpvs	15, 6, cr6, cr14, cr4, {3}
  ac:	65636e61 	strbvs	r6, [r3, #-3681]!	; 0xe61
  b0:	746e656d 	strbtvc	r6, [lr], #-1389	; 0x56d
  b4:	6c6f635f 	stclvs	3, cr6, [pc], #-380	; ffffff40 <_bss_end+0xffff4f40>
  b8:	6f62616c 	svcvs	0x0062616c
  bc:	69746172 	ldmdbvs	r4!, {r1, r4, r5, r6, r8, sp, lr}^
  c0:	69730066 	ldmdbvs	r3!, {r1, r2, r5, r6}^
  c4:	7974657a 	ldmdbvc	r4!, {r1, r3, r4, r5, r6, r8, sl, sp, lr}^
  c8:	6c006570 	cfstr32vs	mvfx6, [r0], {112}	; 0x70
  cc:	20676e6f 	rsbcs	r6, r7, pc, ror #28
  d0:	676e6f6c 	strbvs	r6, [lr, -ip, ror #30]!
  d4:	746e6920 	strbtvc	r6, [lr], #-2336	; 0x920
  d8:	72756300 	rsbsvc	r6, r5, #0
  dc:	746e6572 	strbtvc	r6, [lr], #-1394	; 0x572
  e0:	7874635f 	ldmdavc	r4!, {r0, r1, r2, r3, r4, r6, r8, r9, sp, lr}^
  e4:	554e4700 	strbpl	r4, [lr, #-1792]	; 0x700
  e8:	34204320 	strtcc	r4, [r0], #-800	; 0x320
  ec:	312e372e 	teqcc	lr, lr, lsr #14
  f0:	6f687300 	svcvs	0x00687300
  f4:	69207472 	stmdbvs	r0!, {r1, r4, r5, r6, sl, ip, sp, lr}
  f8:	7200746e 	andvc	r7, r0, #1845493760	; 0x6e000000
  fc:	73696765 	cmnvc	r9, #26476544	; 0x1940000
 100:	73726574 	cmnvc	r2, #486539264	; 0x1d000000
 104:	78746300 	ldmdavc	r4!, {r8, r9, sp, lr}^
 108:	696e695f 	stmdbvs	lr!, {r0, r1, r2, r3, r4, r6, r8, fp, sp, lr}^
 10c:	69750074 	ldmdbvs	r5!, {r2, r4, r5, r6}^
 110:	3233746e 	eorscc	r7, r3, #1845493760	; 0x6e000000
 114:	6300745f 	movwvs	r7, #1119	; 0x45f
 118:	415f7874 	cmpmi	pc, r4, ror r8	; <UNPREDICTABLE>
 11c:	78746300 	ldmdavc	r4!, {r8, r9, sp, lr}^
 120:	6100425f 	tstvs	r0, pc, asr r2
 124:	735f7264 	cmpvc	pc, #1073741830	; 0x40000006
 128:	6b636174 	blvs	18d8700 <_bss_end+0x18cd700>
 12c:	73696400 	cmnvc	r9, #0
 130:	656c6261 	strbvs	r6, [ip, #-609]!	; 0x261
 134:	6d69745f 	cfstrdvs	mvd7, [r9, #-380]!	; 0xfffffe84
 138:	695f7265 	ldmdbvs	pc, {r0, r2, r5, r6, r9, ip, sp, lr}^	; <UNPREDICTABLE>
 13c:	68007172 	stmdavs	r0, {r1, r4, r5, r6, r8, ip, sp, lr}
 140:	00632e77 	rsbeq	r2, r3, r7, ror lr
 144:	5f64656c 	svcpl	0x0064656c
 148:	69006e6f 	stmdbvs	r0, {r0, r1, r2, r3, r5, r6, r9, sl, fp, sp, lr}
 14c:	5f74696e 	svcpl	0x0074696e
 150:	73007768 	movwvc	r7, #1896	; 0x768
 154:	6e5f7465 	cdpvs	4, 5, cr7, cr15, cr5, {3}
 158:	5f747865 	svcpl	0x00747865
 15c:	6b636974 	blvs	18da734 <_bss_end+0x18cf734>
 160:	646e615f 	strbtvs	r6, [lr], #-351	; 0x15f
 164:	616e655f 	cmnvs	lr, pc, asr r5
 168:	5f656c62 	svcpl	0x00656c62
 16c:	656d6974 	strbvs	r6, [sp, #-2420]!	; 0x974
 170:	72695f72 	rsbvc	r5, r9, #456	; 0x1c8
 174:	656c0071 	strbvs	r0, [ip, #-113]!	; 0x71
 178:	666f5f64 	strbtvs	r5, [pc], -r4, ror #30
 17c:	656d0066 	strbvs	r0, [sp, #-102]!	; 0x66
 180:	79726f6d 	ldmdbvc	r2!, {r0, r2, r3, r5, r6, r8, r9, sl, fp, sp, lr}^
 184:	656c655f 	strbvs	r6, [ip, #-1375]!	; 0x55f
 188:	746e656d 	strbtvc	r6, [lr], #-1389	; 0x56d
 18c:	6900745f 	stmdbvs	r0, {r0, r1, r2, r3, r4, r6, sl, ip, sp, lr}
 190:	696e4973 	stmdbvs	lr!, {r0, r1, r4, r5, r6, r8, fp, lr}^
 194:	6c616974 	stclvs	9, cr6, [r1], #-464	; 0xfffffe30
 198:	64657369 	strbtvs	r7, [r5], #-873	; 0x369
 19c:	65724600 	ldrbvs	r4, [r2, #-1536]!	; 0x600
 1a0:	6c6c4165 	stfvse	f4, [ip], #-404	; 0xfffffe6c
 1a4:	7461636f 	strbtvc	r6, [r1], #-879	; 0x36f
 1a8:	654d6465 	strbvs	r6, [sp, #-1125]	; 0x465
 1ac:	79726f6d 	ldmdbvc	r2!, {r0, r2, r3, r5, r6, r8, r9, sl, fp, sp, lr}^
 1b0:	6c6c4100 	stfvse	f4, [ip], #-0
 1b4:	7461636f 	strbtvc	r6, [r1], #-879	; 0x36f
 1b8:	6d654d65 	stclvs	13, cr4, [r5, #-404]!	; 0xfffffe6c
 1bc:	0079726f 	rsbseq	r7, r9, pc, ror #4
 1c0:	636e6f63 	cmnvs	lr, #396	; 0x18c
 1c4:	6e657461 	cdpvs	4, 6, cr7, cr5, cr1, {3}
 1c8:	46657461 	strbtmi	r7, [r5], -r1, ror #8
 1cc:	42656572 	rsbmi	r6, r5, #478150656	; 0x1c800000
 1d0:	6b636f6c 	blvs	18dbf88 <_bss_end+0x18d0f88>
 1d4:	6c610073 	stclvs	0, cr0, [r1], #-460	; 0xfffffe34
 1d8:	61636f6c 	cmnvs	r3, ip, ror #30
 1dc:	654d6574 	strbvs	r6, [sp, #-1396]	; 0x574
 1e0:	79726f6d 	ldmdbvc	r2!, {r0, r2, r3, r5, r6, r8, r9, sl, fp, sp, lr}^
 1e4:	6300632e 	movwvs	r6, #814	; 0x32e
 1e8:	74616572 	strbtvc	r6, [r1], #-1394	; 0x572
 1ec:	61654865 	cmnvs	r5, r5, ror #16
 1f0:	00726564 	rsbseq	r6, r2, r4, ror #10
 1f4:	657a6973 	ldrbvs	r6, [sl, #-2419]!	; 0x973
 1f8:	7246664f 	subvc	r6, r6, #82837504	; 0x4f00000
 1fc:	70536565 	subsvc	r6, r3, r5, ror #10
 200:	00656361 	rsbeq	r6, r5, r1, ror #6
 204:	72646461 	rsbvc	r6, r4, #1627389952	; 0x61000000
 208:	00737365 	rsbseq	r7, r3, r5, ror #6
 20c:	70616568 	rsbvc	r6, r1, r8, ror #10
 210:	61656800 	cmnvs	r5, r0, lsl #16
 214:	4e726564 	cdpmi	5, 7, cr6, cr2, cr4, {3}
 218:	50747865 	rsbspl	r7, r4, r5, ror #16
 21c:	746e696f 	strbtvc	r6, [lr], #-2415	; 0x96f
 220:	63007265 	movwvs	r7, #613	; 0x265
 224:	74616572 	strbtvc	r6, [r1], #-1394	; 0x572
 228:	696e4965 	stmdbvs	lr!, {r0, r2, r5, r6, r8, fp, lr}^
 22c:	6c616974 	stclvs	9, cr6, [r1], #-464	; 0xfffffe30
 230:	64616548 	strbtvs	r6, [r1], #-1352	; 0x548
 234:	69007265 	stmdbvs	r0, {r0, r2, r5, r6, r9, ip, sp, lr}
 238:	756f4673 	strbvc	r4, [pc, #-1651]!	; fffffbcd <_bss_end+0xffff4bcd>
 23c:	6900646e 	stmdbvs	r0, {r1, r2, r3, r5, r6, sl, sp, lr}
 240:	5f74696e 	svcpl	0x0074696e
 244:	00787463 	rsbseq	r7, r8, r3, ror #8
 248:	636e7566 	cmnvs	lr, #427819008	; 0x19800000
 24c:	7000745f 	andvc	r7, r0, pc, asr r4
 250:	65636f72 	strbvs	r6, [r3, #-3954]!	; 0xf72
 254:	632e7373 	teqvs	lr, #-872415231	; 0xcc000001
 258:	77656e00 	strbvc	r6, [r5, -r0, lsl #28]!
 25c:	636f6c5f 	cmnvs	pc, #24320	; 0x5f00
 260:	61747300 	cmnvs	r4, r0, lsl #6
 264:	735f6b63 	cmpvc	pc, #101376	; 0x18c00
 268:	00657a69 	rsbeq	r7, r5, r9, ror #20
 26c:	70736964 	rsbsvc	r6, r3, r4, ror #18
 270:	68637461 	stmdavs	r3!, {r0, r5, r6, sl, ip, sp, lr}^
 274:	632e7265 	teqvs	lr, #1342177286	; 0x50000006
 278:	69777300 	ldmdbvs	r7!, {r8, r9, ip, sp, lr}^
 27c:	5f686374 	svcpl	0x00686374
 280:	Address 0x0000000000000280 is out of bounds.


Disassembly of section .debug_frame:

00000000 <.debug_frame>:
   0:	0000000c 	andeq	r0, r0, ip
   4:	ffffffff 			; <UNDEFINED> instruction: 0xffffffff
   8:	7c020001 	stcvc	0, cr0, [r2], {1}
   c:	000d0c0e 	andeq	r0, sp, lr, lsl #24
  10:	00000014 	andeq	r0, r0, r4, lsl r0
  14:	00000000 	andeq	r0, r0, r0
  18:	00008078 	andeq	r8, r0, r8, ror r0
  1c:	0000002c 	andeq	r0, r0, ip, lsr #32
  20:	8e040e42 	cdphi	14, 0, cr0, cr4, cr2, {2}
  24:	100e4201 	andne	r4, lr, r1, lsl #4
  28:	00000014 	andeq	r0, r0, r4, lsl r0
  2c:	00000000 	andeq	r0, r0, r0
  30:	000080a4 	andeq	r8, r0, r4, lsr #1
  34:	0000002c 	andeq	r0, r0, ip, lsr #32
  38:	8e040e42 	cdphi	14, 0, cr0, cr4, cr2, {2}
  3c:	100e4201 	andne	r4, lr, r1, lsl #4
  40:	00000014 	andeq	r0, r0, r4, lsl r0
  44:	00000000 	andeq	r0, r0, r0
  48:	000080d0 	ldrdeq	r8, [r0], -r0
  4c:	00000070 	andeq	r0, r0, r0, ror r0
  50:	83080e42 	movwhi	r0, #36418	; 0x8e42
  54:	00018e02 	andeq	r8, r1, r2, lsl #28
  58:	0000000c 	andeq	r0, r0, ip
  5c:	ffffffff 			; <UNDEFINED> instruction: 0xffffffff
  60:	7c020001 	stcvc	0, cr0, [r2], {1}
  64:	000d0c0e 	andeq	r0, sp, lr, lsl #24
  68:	00000014 	andeq	r0, r0, r4, lsl r0
  6c:	00000058 	andeq	r0, r0, r8, asr r0
  70:	00008140 	andeq	r8, r0, r0, asr #2
  74:	00000018 	andeq	r0, r0, r8, lsl r0
  78:	83080e42 	movwhi	r0, #36418	; 0x8e42
  7c:	00018e02 	andeq	r8, r1, r2, lsl #28
  80:	00000014 	andeq	r0, r0, r4, lsl r0
  84:	00000058 	andeq	r0, r0, r8, asr r0
  88:	00008158 	andeq	r8, r0, r8, asr r1
  8c:	00000018 	andeq	r0, r0, r8, lsl r0
  90:	83080e42 	movwhi	r0, #36418	; 0x8e42
  94:	00018e02 	andeq	r8, r1, r2, lsl #28
  98:	00000014 	andeq	r0, r0, r4, lsl r0
  9c:	00000058 	andeq	r0, r0, r8, asr r0
  a0:	00008170 	andeq	r8, r0, r0, ror r1
  a4:	00000040 	andeq	r0, r0, r0, asr #32
  a8:	8e040e42 	cdphi	14, 0, cr0, cr4, cr2, {2}
  ac:	100e4201 	andne	r4, lr, r1, lsl #4
  b0:	00000014 	andeq	r0, r0, r4, lsl r0
  b4:	00000058 	andeq	r0, r0, r8, asr r0
  b8:	000081b0 			; <UNDEFINED> instruction: 0x000081b0
  bc:	00000018 	andeq	r0, r0, r8, lsl r0
  c0:	83080e42 	movwhi	r0, #36418	; 0x8e42
  c4:	00018e02 	andeq	r8, r1, r2, lsl #28
  c8:	00000014 	andeq	r0, r0, r4, lsl r0
  cc:	00000058 	andeq	r0, r0, r8, asr r0
  d0:	000081c8 	andeq	r8, r0, r8, asr #3
  d4:	00000018 	andeq	r0, r0, r8, lsl r0
  d8:	83080e42 	movwhi	r0, #36418	; 0x8e42
  dc:	00018e02 	andeq	r8, r1, r2, lsl #28
  e0:	00000014 	andeq	r0, r0, r4, lsl r0
  e4:	00000058 	andeq	r0, r0, r8, asr r0
  e8:	000081e0 	andeq	r8, r0, r0, ror #3
  ec:	00000094 	muleq	r0, r4, r0
  f0:	8e040e42 	cdphi	14, 0, cr0, cr4, cr2, {2}
  f4:	100e4201 	andne	r4, lr, r1, lsl #4
  f8:	0000000c 	andeq	r0, r0, ip
  fc:	ffffffff 			; <UNDEFINED> instruction: 0xffffffff
 100:	7c020001 	stcvc	0, cr0, [r2], {1}
 104:	000d0c0e 	andeq	r0, sp, lr, lsl #24
 108:	00000014 	andeq	r0, r0, r4, lsl r0
 10c:	000000f8 	strdeq	r0, [r0], -r8
 110:	00008274 	andeq	r8, r0, r4, ror r2
 114:	00000148 	andeq	r0, r0, r8, asr #2
 118:	8e040e42 	cdphi	14, 0, cr0, cr4, cr2, {2}
 11c:	200e4201 	andcs	r4, lr, r1, lsl #4
 120:	00000014 	andeq	r0, r0, r4, lsl r0
 124:	000000f8 	strdeq	r0, [r0], -r8
 128:	000083bc 			; <UNDEFINED> instruction: 0x000083bc
 12c:	00000058 	andeq	r0, r0, r8, asr r0
 130:	8e040e42 	cdphi	14, 0, cr0, cr4, cr2, {2}
 134:	100e4201 	andne	r4, lr, r1, lsl #4
 138:	00000010 	andeq	r0, r0, r0, lsl r0
 13c:	000000f8 	strdeq	r0, [r0], -r8
 140:	00008414 	andeq	r8, r0, r4, lsl r4
 144:	00000080 	andeq	r0, r0, r0, lsl #1
 148:	00080e42 	andeq	r0, r8, r2, asr #28
 14c:	00000010 	andeq	r0, r0, r0, lsl r0
 150:	000000f8 	strdeq	r0, [r0], -r8
 154:	00008494 	muleq	r0, r4, r4
 158:	000000a4 	andeq	r0, r0, r4, lsr #1
 15c:	00080e42 	andeq	r0, r8, r2, asr #28
 160:	00000010 	andeq	r0, r0, r0, lsl r0
 164:	000000f8 	strdeq	r0, [r0], -r8
 168:	00008538 	andeq	r8, r0, r8, lsr r5
 16c:	0000003c 	andeq	r0, r0, ip, lsr r0
 170:	00080e42 	andeq	r0, r8, r2, asr #28
 174:	0000000c 	andeq	r0, r0, ip
 178:	ffffffff 			; <UNDEFINED> instruction: 0xffffffff
 17c:	7c020001 	stcvc	0, cr0, [r2], {1}
 180:	000d0c0e 	andeq	r0, sp, lr, lsl #24
 184:	00000014 	andeq	r0, r0, r4, lsl r0
 188:	00000174 	andeq	r0, r0, r4, ror r1
 18c:	00008574 	andeq	r8, r0, r4, ror r5
 190:	00000084 	andeq	r0, r0, r4, lsl #1
 194:	8e040e42 	cdphi	14, 0, cr0, cr4, cr2, {2}
 198:	200e4201 	andcs	r4, lr, r1, lsl #4
 19c:	0000000c 	andeq	r0, r0, ip
 1a0:	ffffffff 			; <UNDEFINED> instruction: 0xffffffff
 1a4:	7c020001 	stcvc	0, cr0, [r2], {1}
 1a8:	000d0c0e 	andeq	r0, sp, lr, lsl #24
 1ac:	00000010 	andeq	r0, r0, r0, lsl r0
 1b0:	0000019c 	muleq	r0, ip, r1
 1b4:	000085f8 	strdeq	r8, [r0], -r8	; <UNPREDICTABLE>
 1b8:	00000200 	andeq	r0, r0, r0, lsl #4
 1bc:	00080e42 	andeq	r0, r8, r2, asr #28

Disassembly of section .debug_ranges:

00000000 <.debug_ranges>:
   0:	0000006c 	andeq	r0, r0, ip, rrx
   4:	000000e4 	andeq	r0, r0, r4, ror #1
   8:	00000110 	andeq	r0, r0, r0, lsl r1
   c:	00000114 	andeq	r0, r0, r4, lsl r1
	...
